0000000000030e80 P SSL_write
0000000000030e90 P SSL_load_error_strings
0000000000030ea0 P __printf_chk
0000000000030eb0 P ftell
0000000000030ec0 P _Znam
0000000000030ed0 P getegid
0000000000030ee0 P deflateInit_
0000000000030ef0 P setvbuf
0000000000030f00 P _ZNSo3putEc
0000000000030f10 P __errno_location
0000000000030f20 P ENGINE_load_builtin_engines
0000000000030f30 P symlink
0000000000030f40 P pcre_fullinfo
0000000000030f50 P sendto
0000000000030f60 P _ZNSt8__detail15_List_node_base7_M_hookEPS0_
0000000000030f70 P getservbyname
0000000000030f80 P deflateInit2_
0000000000030f90 P isspace
0000000000030fa0 P uname
0000000000030fb0 P strcspn
0000000000030fc0 P ENGINE_register_all_complete
0000000000030fd0 P SSL_set_session
0000000000030fe0 P atan2
0000000000030ff0 P __ctype_toupper_loc
0000000000031000 P EVP_DecryptFinal_ex
0000000000031010 P rewind
0000000000031020 P bind
0000000000031030 P ungetc
0000000000031040 P _ZSt29_Rb_tree_insert_and_rebalancebPSt18_Rb_tree_node_baseS0_RS_
0000000000031050 P getopt_long_only
0000000000031060 P ceil
0000000000031070 P __ctype_tolower_loc
0000000000031080 P clearerr
0000000000031090 P RC4_options
00000000000310a0 P EVP_PKEY_get1_EC_KEY
00000000000310b0 P sprintf
00000000000310c0 P __strdup
00000000000310d0 P ERR_lib_error_string
00000000000310e0 P EVP_PKEY_type
00000000000310f0 P X509_free
0000000000031100 P sin
0000000000031110 P RSA_sign
0000000000031120 P if_nametoindex
0000000000031130 P DSA_do_sign
0000000000031140 P strstr
0000000000031150 P BN_bn2hex
0000000000031160 P tanh
0000000000031170 P srandom
0000000000031180 P isxdigit
0000000000031190 P DSA_free
00000000000311a0 P _ZNSt7__cxx1119basic_ostringstreamIcSt11char_traitsIcESaIcEED1Ev
00000000000311b0 P socket
00000000000311c0 P strcoll
00000000000311d0 P EVP_DigestFinal
00000000000311e0 P EC_METHOD_get_field_type
00000000000311f0 P ether_hostton
0000000000031200 P __vfprintf_chk
0000000000031210 P zlibVersion
0000000000031220 P rand
0000000000031230 P _ZSt9terminatev
0000000000031240 P BN_rand
0000000000031250 P link
0000000000031260 P _ZNSt8ios_baseC2Ev
0000000000031270 P recvmsg
0000000000031280 P SSL_get_verify_result
0000000000031290 P BN_clear_free
00000000000312a0 P popen
00000000000312b0 P SSL_library_init
00000000000312c0 P OBJ_nid2ln
00000000000312d0 P _ZNSt7__cxx1112basic_stringIcSt11char_traitsIcESaIcEE9_M_appendEPKcm
00000000000312e0 P getpgrp
00000000000312f0 P sigfillset
0000000000031300 P strtoul
0000000000031310 P ERR_func_error_string
0000000000031320 P log
0000000000031330 P recv
0000000000031340 P _ZNSt8ios_baseD2Ev
0000000000031350 P strerror
0000000000031360 P flockfile
0000000000031370 P asprintf
0000000000031380 P write
0000000000031390 P HMAC_CTX_init
00000000000313a0 P HMAC
00000000000313b0 P X509_get_subject_name
00000000000313c0 P _ZSt17__throw_bad_allocv
00000000000313d0 P strchr
00000000000313e0 P longjmp
00000000000313f0 P __open_2
0000000000031400 P ctime
0000000000031410 P __cxa_begin_catch
0000000000031420 P getprotobyname
0000000000031430 P OBJ_NAME_do_all_sorted
0000000000031440 P strspn
0000000000031450 P d2i_X509
0000000000031460 P rmdir
0000000000031470 P EVP_sha1
0000000000031480 P RC4_set_key
0000000000031490 P strlen
00000000000314a0 P __uflow
00000000000314b0 P inet_ntoa
00000000000314c0 P memcmp
00000000000314d0 P EC_GROUP_get_curve_name
00000000000314e0 P mkdir
00000000000314f0 P MD4
0000000000031500 P deflate
0000000000031510 P EVP_CIPHER_CTX_set_padding
0000000000031520 P EVP_EncryptFinal_ex
0000000000031530 P strncmp
0000000000031540 P __strncat_chk
0000000000031550 P __rawmemchr
0000000000031560 P deflateSetDictionary
0000000000031570 P BN_num_bits
0000000000031580 P EVP_aes_192_ctr
0000000000031590 P sigprocmask
00000000000315a0 P epoll_wait
00000000000315b0 P getuid
00000000000315c0 P EVP_DecryptInit_ex
00000000000315d0 P send
00000000000315e0 P EVP_MD_CTX_init
00000000000315f0 P log10
0000000000031600 P BN_clear_bit
0000000000031610 P DTLS_client_method
0000000000031620 P difftime
0000000000031630 P _ZNSt8__detail15_List_node_base11_M_transferEPS0_S1_
0000000000031640 P BN_dup
0000000000031650 P random
0000000000031660 P BN_bn2dec
0000000000031670 P EC_KEY_free
0000000000031680 P SSL_read
0000000000031690 P BIO_free_all
00000000000316a0 P strncpy
00000000000316b0 P SSL_CTX_set_verify
00000000000316c0 P SSL_connect
00000000000316d0 P localtime_r
00000000000316e0 P _ZSt20__throw_length_errorPKc
00000000000316f0 P _ZNSt7__cxx1112basic_stringIcSt11char_traitsIcESaIcEE9_M_assignERKS4_
0000000000031700 P EVP_aes_192_cbc
0000000000031710 P RAND_add
0000000000031720 P X509_EXTENSION_get_critical
0000000000031730 P BN_bn2bin
0000000000031740 P memset
0000000000031750 P abort
0000000000031760 P dlerror
0000000000031770 P tan
0000000000031780 P EVP_CipherInit
0000000000031790 P munmap
00000000000317a0 P EVP_CIPHER_CTX_iv_length
00000000000317b0 P fcntl
00000000000317c0 P RSA_free
00000000000317d0 P SSL_CTX_ctrl
00000000000317e0 P geteuid
00000000000317f0 P EVP_cast5_cbc
0000000000031800 P __strncpy_chk
0000000000031810 P __sprintf_chk
0000000000031820 P deflateEnd
0000000000031830 P _ZSt28_Rb_tree_rebalance_for_erasePSt18_Rb_tree_node_baseRS_
0000000000031840 P MD5
0000000000031850 P __snprintf_chk
0000000000031860 P EVP_sha256
0000000000031870 P EVP_sha512
0000000000031880 P tcgetpgrp
0000000000031890 P _ZdlPvRKSt9nothrow_t
00000000000318a0 P rename
00000000000318b0 P RSA_new
00000000000318c0 P _ZNSt7__cxx1112basic_stringIcSt11char_traitsIcESaIcEED1Ev
00000000000318d0 P getnameinfo
00000000000318e0 P X509V3_EXT_print
00000000000318f0 P OpenSSL_add_all_ciphers
0000000000031900 P vsnprintf
0000000000031910 P __cxa_guard_abort
0000000000031920 P EVP_Cipher
0000000000031930 P SSLv23_client_method
0000000000031940 P __cxa_guard_release
0000000000031950 P __assert_fail
0000000000031960 P EVP_aes_256_ctr
0000000000031970 P calloc
0000000000031980 P clock
0000000000031990 P HMAC_Init_ex
00000000000319a0 P strncat
00000000000319b0 P mktime
00000000000319c0 P EVP_get_cipherbyname
00000000000319d0 P RAND_status
00000000000319e0 P _ZNSo9_M_insertImEERSoT_
00000000000319f0 P _ZNSo5flushEv
0000000000031a00 P SSL_CTX_set_cipher_list
0000000000031a10 P BN_CTX_new
0000000000031a20 P _ZSt18_Rb_tree_incrementPSt18_Rb_tree_node_base
0000000000031a30 P EVP_EncryptUpdate
0000000000031a40 P _ZSt19__throw_logic_errorPKc
0000000000031a50 P crc32
0000000000031a60 P sscanf
0000000000031a70 P open
0000000000031a80 P EVP_DigestUpdate
0000000000031a90 P localtime
0000000000031aa0 P isupper
0000000000031ab0 P DSA_do_verify
0000000000031ac0 P dlclose
0000000000031ad0 P _ZNSt7__cxx1118basic_stringstreamIcSt11char_traitsIcESaIcEED1Ev
0000000000031ae0 P sleep
0000000000031af0 P getsockopt
0000000000031b00 P recvfrom
0000000000031b10 P strtod
0000000000031b20 P X509_EXTENSION_get_object
0000000000031b30 P SSL_ctrl
0000000000031b40 P sqrt
0000000000031b50 P mcount
0000000000031b60 P inflate
0000000000031b70 P DES_set_odd_parity
0000000000031b80 P EVP_aes_128_cbc
0000000000031b90 P strftime
0000000000031ba0 P sendmsg
0000000000031bb0 P __vsnprintf_chk
0000000000031bc0 P memcpy
0000000000031bd0 P funlockfile
0000000000031be0 P getnetbyname
0000000000031bf0 P connect
0000000000031c00 P perror
0000000000031c10 P BIO_free
0000000000031c20 P _ZNSo5tellpEv
0000000000031c30 P system
0000000000031c40 P EVP_CIPHER_CTX_init
0000000000031c50 P BN_mod_exp
0000000000031c60 P EC_GROUP_method_of
0000000000031c70 P HMAC_CTX_cleanup
0000000000031c80 P __strcpy_chk
0000000000031c90 P inflateInit2_
0000000000031ca0 P X509_NAME_ENTRY_get_object
0000000000031cb0 P OBJ_obj2nid
0000000000031cc0 P socketpair
0000000000031cd0 P __cxa_atexit
0000000000031ce0 P inflateInit_
0000000000031cf0 P isdigit
0000000000031d00 P SSL_SESSION_free
0000000000031d10 P setlocale
0000000000031d20 P pow
0000000000031d30 P setrlimit
0000000000031d40 P SSL_get_peer_certificate
0000000000031d50 P BN_add
0000000000031d60 P time
0000000000031d70 P getsockname
0000000000031d80 P isgraph
0000000000031d90 P strcpy
0000000000031da0 P sinh
0000000000031db0 P freopen64
0000000000031dc0 P _ZdlPv
0000000000031dd0 P EVP_PKEY_bits
0000000000031de0 P select
0000000000031df0 P acos
0000000000031e00 P srand
0000000000031e10 P ERR_get_error
0000000000031e20 P __isoc99_sscanf
0000000000031e30 P BIO_new_mem_buf
0000000000031e40 P fclose
0000000000031e50 P _Znwm
0000000000031e60 P __xstat
0000000000031e70 P raise
0000000000031e80 P BN_pseudo_rand
0000000000031e90 P SSL_free
0000000000031ea0 P isalnum
0000000000031eb0 P BIO_vfree
0000000000031ec0 P BN_hex2bn
0000000000031ed0 P _ZSt18_Rb_tree_decrementPSt18_Rb_tree_node_base
0000000000031ee0 P inet_ntop
0000000000031ef0 P EVP_PKEY_free
0000000000031f00 P inflateEnd
0000000000031f10 P fileno
0000000000031f20 P ERR_reason_error_string
0000000000031f30 P getgid
0000000000031f40 P __fxstat
0000000000031f50 P readlink
0000000000031f60 P EVP_DecryptUpdate
0000000000031f70 P SSL_get_verify_mode
0000000000031f80 P ERR_load_crypto_strings
0000000000031f90 P __ctype_b_loc
0000000000031fa0 P strcasecmp
0000000000031fb0 P strrchr
0000000000031fc0 P EVP_ripemd160
0000000000031fd0 P fseek
0000000000031fe0 P memchr
0000000000031ff0 P __stack_chk_fail
0000000000032000 P tcgetattr
0000000000032010 P X509_get_pubkey
0000000000032020 P fopen64
0000000000032030 P BIO_ctrl
0000000000032040 P fputs
0000000000032050 P DSA_SIG_new
0000000000032060 P gethostbyname
0000000000032070 P _ZSt16__ostream_insertIcSt11char_traitsIcEERSt13basic_ostreamIT_T0_ES6_PKS3_l
0000000000032080 P HMAC_Final
0000000000032090 P _ZNKSt5ctypeIcE13_M_widen_initEv
00000000000320a0 P _ZSt18_Rb_tree_incrementPKSt18_Rb_tree_node_base
00000000000320b0 P getpwuid
00000000000320c0 P fflush
00000000000320d0 P fopen
00000000000320e0 P _ZNSt7__cxx1112basic_stringIcSt11char_traitsIcESaIcEE8_M_eraseEmm
00000000000320f0 P signal
0000000000032100 P free
0000000000032110 P exit
0000000000032120 P getenv
0000000000032130 P EVP_CIPHER_CTX_cleanup
0000000000032140 P RAND_bytes
0000000000032150 P BN_is_prime_ex
0000000000032160 P _IO_getc
0000000000032170 P HMAC_Update
0000000000032180 P OPENSSL_add_all_algorithms_noconf
0000000000032190 P EVP_rc4
00000000000321a0 P fputc
00000000000321b0 P sigemptyset
00000000000321c0 P sigaction
00000000000321d0 P _longjmp
00000000000321e0 P getaddrinfo
00000000000321f0 P strncasecmp
0000000000032200 P _ZSt16__throw_bad_castv
0000000000032210 P tcsetattr
0000000000032220 P zError
0000000000032230 P EVP_DigestFinal_ex
0000000000032240 P SSL_get_error
0000000000032250 P RC4
0000000000032260 P __asprintf_chk
0000000000032270 P _ZdaPv
0000000000032280 P freeaddrinfo
0000000000032290 P islower
00000000000322a0 P SSL_new
00000000000322b0 P SSL_get_session
00000000000322c0 P EVP_MD_CTX_cleanup
00000000000322d0 P X509_NAME_entry_count
00000000000322e0 P X509_NAME_ENTRY_get_data
00000000000322f0 P EVP_PKEY_get1_DSA
0000000000032300 P exp
0000000000032310 P malloc
0000000000032320 P PEM_read_bio_PrivateKey
0000000000032330 P fmod
0000000000032340 P _ZNSt9basic_iosIcSt11char_traitsIcEE4initEPSt15basic_streambufIcS1_E
0000000000032350 P BIO_new
0000000000032360 P ERR_error_string
0000000000032370 P epoll_ctl
0000000000032380 P SSL_CTX_free
0000000000032390 P BN_new
00000000000323a0 P __memset_chk
00000000000323b0 P gai_strerror
00000000000323c0 P EVP_DigestInit_ex
00000000000323d0 P _ZNKSt7__cxx1112basic_stringIcSt11char_traitsIcESaIcEE5rfindEPKcmm
00000000000323e0 P BN_is_bit_set
00000000000323f0 P __vsprintf_chk
0000000000032400 P BN_set_bit
0000000000032410 P putchar
0000000000032420 P BN_sub_word
0000000000032430 P cosh
0000000000032440 P strcmp
0000000000032450 P getrlimit
0000000000032460 P strtol
0000000000032470 P ioctl
0000000000032480 P _ZNSt6localeD1Ev
0000000000032490 P usleep
00000000000324a0 P sk_num
00000000000324b0 P BN_dec2bn
00000000000324c0 P pclose
00000000000324d0 P BN_CTX_free
00000000000324e0 P EVP_aes_256_cbc
00000000000324f0 P pcre_exec
0000000000032500 P fprintf
0000000000032510 P read
0000000000032520 P _setjmp
0000000000032530 P EVP_get_digestbyname
0000000000032540 P EVP_CIPHER_CTX_set_key_length
0000000000032550 P __cxa_rethrow
0000000000032560 P getpid
0000000000032570 P dlopen
0000000000032580 P iscntrl
0000000000032590 P OBJ_obj2txt
00000000000325a0 P fread
00000000000325b0 P gethostname
00000000000325c0 P opendir
00000000000325d0 P poll
00000000000325e0 P RIPEMD160
00000000000325f0 P _ZSt24__throw_out_of_range_fmtPKcz
0000000000032600 P _ZNKSt7__cxx1112basic_stringIcSt11char_traitsIcESaIcEE13find_first_ofEPKcmm
0000000000032610 P ldexp
0000000000032620 P dup
0000000000032630 P tcflush
0000000000032640 P log2
0000000000032650 P ftello64
0000000000032660 P EVP_md5
0000000000032670 P sigaddset
0000000000032680 P readdir
0000000000032690 P puts
00000000000326a0 P _ZNSt7__cxx1112basic_stringIcSt11char_traitsIcESaIcEE10_M_replaceEmmPKcm
00000000000326b0 P feof
00000000000326c0 P EVP_EncryptInit_ex
00000000000326d0 P strtok
00000000000326e0 P fgetc
00000000000326f0 P _ZNSt7__cxx1112basic_stringIcSt11char_traitsIcESaIcEE7reserveEm
0000000000032700 P PEM_read_bio_RSAPrivateKey
0000000000032710 P PEM_read_bio_DSAPrivateKey
0000000000032720 P fgets
0000000000032730 P X509_get_issuer_name
0000000000032740 P SSL_get1_session
0000000000032750 P pcre_maketables
0000000000032760 P BIO_s_mem
0000000000032770 P SSL_set_fd
0000000000032780 P __fdelt_chk
0000000000032790 P BN_bin2bn
00000000000327a0 P DSA_SIG_free
00000000000327b0 P snprintf
00000000000327c0 P isalpha
00000000000327d0 P closedir
00000000000327e0 P X509_NAME_get_entry
00000000000327f0 P _ZNSo9_M_insertIdEERSoT_
0000000000032800 P gettimeofday
0000000000032810 P OBJ_nid2sn
0000000000032820 P X509_digest
0000000000032830 P memmove
0000000000032840 P _exit
0000000000032850 P _ZNSt8__detail15_List_node_base9_M_unhookEv
0000000000032860 P __cxa_end_catch
0000000000032870 P realloc
0000000000032880 P __fprintf_chk
0000000000032890 P fseeko64
00000000000328a0 P __gxx_personality_v0
00000000000328b0 P asin
00000000000328c0 P DSA_new
00000000000328d0 P pcre_compile
00000000000328e0 P access
00000000000328f0 P RSA_verify
0000000000032900 P pcre_study
0000000000032910 P SSL_shutdown
0000000000032920 P EVP_DigestInit
0000000000032930 P SHA1
0000000000032940 P __memcpy_chk
0000000000032950 P floor
0000000000032960 P _ZNSt9basic_iosIcSt11char_traitsIcEE5clearESt12_Ios_Iostate
0000000000032970 P _ZNSolsEi
0000000000032980 P BN_set_word
0000000000032990 P _ZNKSt7__cxx1112basic_stringIcSt11char_traitsIcESaIcEE4findEPKcmm
00000000000329a0 P isatty
00000000000329b0 P freeifaddrs
00000000000329c0 P strpbrk
00000000000329d0 P inflateSetDictionary
00000000000329e0 P BN_div_word
00000000000329f0 P tmpfile64
0000000000032a00 P EVP_bf_cbc
0000000000032a10 P _Unwind_Resume
0000000000032a20 P BIO_new_file
0000000000032a30 P isprint
0000000000032a40 P sk_value
0000000000032a50 P mmap
0000000000032a60 P setsockopt
0000000000032a70 P SSL_CTX_set_timeout
0000000000032a80 P _ZNSt7__cxx1112basic_stringIcSt11char_traitsIcESaIcEE9_M_createERmm
0000000000032a90 P remove
0000000000032aa0 P pcre_version
0000000000032ab0 P getpagesize
0000000000032ac0 P _ZNSt8__detail15_List_node_base4swapERS0_S1_
0000000000032ad0 P _ZNSt7__cxx1112basic_stringIcSt11char_traitsIcESaIcEE9_M_mutateEmmPKcm
0000000000032ae0 P __cxa_guard_acquire
0000000000032af0 P strdup
0000000000032b00 P __vasprintf_chk
0000000000032b10 P SSL_CTX_new
0000000000032b20 P dlsym
0000000000032b30 P frexp
0000000000032b40 P _ZNSt7__cxx1112basic_stringIcSt11char_traitsIcESaIcEE14_M_replace_auxEmmmc
0000000000032b50 P EC_KEY_get0_group
0000000000032b60 P cos
0000000000032b70 P __libc_start_main
0000000000032b80 P __lxstat
0000000000032b90 P epoll_create
0000000000032ba0 P ferror
0000000000032bb0 P if_indextoname
0000000000032bc0 P adler32
0000000000032bd0 P getifaddrs
0000000000032be0 P inet_pton
0000000000032bf0 P __cxa_pure_virtual
0000000000032c00 P mkstemp64
0000000000032c10 P qsort
0000000000032c20 P fscanf
0000000000032c30 P _ZNSt7__cxx1112basic_stringIcSt11char_traitsIcESaIcEE6assignEPKc
0000000000032c40 P EVP_des_ede3_cbc
0000000000032c50 P ispunct
0000000000032c60 P strcasestr
0000000000032c70 P localeconv
0000000000032c80 P fwrite
0000000000032c90 P CRYPTO_free
0000000000032ca0 P close
0000000000032cb0 P EVP_PKEY_get1_RSA
0000000000032cc0 P RSA_size
0000000000032cd0 P gmtime_r
0000000000032ce0 P PEM_write_bio_X509
0000000000032cf0 P _ZnwmRKSt9nothrow_t
0000000000032d00 P _ZNSt6localeC1Ev
0000000000032d10 P EVP_aes_128_ctr
0000000000032d20 P __dynsym_end
0000000000032d30 t _ZNSt7__cxx1112basic_stringIcSt11char_traitsIcESaIcEEC2EPKcRKS3_.isra.109
0000000000032d6a t _ZL16checked_fd_issetiP6fd_set.part.0
0000000000032d98 t _ZL14checked_fd_setiP6fd_set.part.1
0000000000032dc6 t _ZL14checked_fd_clriP6fd_set.part.2
0000000000032df4 t _ZNK10UltraProbe6icmpidEv.part.19
0000000000032e16 t _ZNK10UltraProbe6tcpseqEv.part.20
0000000000032e3c t _ZNK10UltraProbe8sctpvtagEv.part.21
0000000000032e5e t _ZN17ultra_timing_vals8cc_scaleEPK21scan_performance_vars.part.4
0000000000032e80 t socket_count_read_dec.isra.10.part.11
0000000000032e9d t socket_count_write_dec.isra.12.part.13
0000000000032eba t socket_count_read_inc.isra.16.part.17
0000000000032ed7 t socket_count_write_inc.isra.18.part.19
0000000000032ef4 t gh_list_remove.part.21
0000000000032f11 t get_new_event_id.part.6
0000000000032f2e t checked_fd_isset.part.5
0000000000032f57 t checked_fd_set.part.7
0000000000032f80 t checked_fd_clr.part.8
0000000000032fa9 t proxy_ctx_node_next.part.1
0000000000032fc6 t proxy_ctx_node_next.part.1
0000000000032fe3 t heap_grow.part.2
0000000000033000 t fatal
00000000000330c6 t yy_get_previous_state
00000000000331b2 t resume_error
00000000000331ef t error.isra.0
0000000000033230 t _GLOBAL__sub_I_global_netctl
0000000000033260 t _GLOBAL__sub_I_MacTable
00000000000332c0 t _GLOBAL__sub_I__ZN3DNS7Factory13progressiveIdE
00000000000334b0 t _GLOBAL__sub_I__Z16set_program_namePKc
00000000000335e0 t _GLOBAL__sub_I_o
0000000000033610 t _GLOBAL__sub_I__Z13init_payloadsv
0000000000033670 t _GLOBAL__sub_I__ZN11port_reason11set_ip_addrEPK16sockaddr_storage
00000000000336a0 t _GLOBAL__sub_I__Z26service_node_ratio_compareRK12service_nodeS1_
0000000000033730 t _GLOBAL__sub_I__Z10returnhostP14HostGroupState
00000000000337a0 t _GLOBAL__sub_I__Z15nmap_raw_socketv
00000000000337e0 t _GLOBAL__sub_I__ZN5Probe13token_counterE
00000000000338a0 t _GLOBAL__sub_I__Z12xml_unescapePKc
00000000000338e0 t _GLOBAL__sub_I__ZN12ScriptResult5clearEv
0000000000033920 t _ZNSt7__cxx1112basic_stringIcSt11char_traitsIcESaIcEE12_M_constructIPKcEEvT_S8_St20forward_iterator_tag.isra.53
00000000000339f0 t _GLOBAL__sub_I__Z11set_versionP9lua_StatePK17serviceDeductions
0000000000033a60 T main
0000000000033c60 T _start
0000000000033d60 t _ZL7cp_initv.part.0
0000000000033db0 T _Z7cp_freev
0000000000033e10 T _Z8cp_alloci
0000000000033ed0 T _Z9cp_strdupPKc
0000000000033fe0 T _ZN22FingerPrintResultsIPv4D2Ev
0000000000034100 T _ZN22FingerPrintResultsIPv4D0Ev
0000000000034130 T _ZN22FingerPrintResultsIPv6D2Ev
0000000000034190 T _ZN22FingerPrintResultsIPv6D0Ev
00000000000341c0 T _ZN22FingerPrintResultsIPv616OmitSubmissionFPEv
0000000000034240 t _ZL9strnulleqPKcS0_
0000000000034270 T _ZN18FingerPrintResults16OmitSubmissionFPEv
0000000000034380 T _ZN18FingerPrintResultsC1Ev
0000000000034440 T _ZN18FingerPrintResultsD2Ev
0000000000034450 T _ZN18FingerPrintResultsD0Ev
0000000000034460 T _ZN22FingerPrintResultsIPv4C2Ev
00000000000344b0 T _ZN22FingerPrintResultsIPv6C2Ev
0000000000034510 T _ZN18FingerPrintResults27classAlreadyExistsInResultsEP17OS_Classification
00000000000345c0 T _ZN18FingerPrintResults22populateClassificationEv
0000000000034730 T _ZN18FingerPrintResults19getOSClassificationEv
0000000000034770 T _Z14label_prob_cmpPKvS0_
00000000000347a0 T _ZN7FPHost64doneEv
00000000000347d0 T _ZN16FPNetworkControlD1Ev
0000000000034850 t _ZL10novelty_ofPK12feature_nodei
0000000000034960 t _ZL12get_hoplimitv.part.7
0000000000034990 t _ZN6FPHost10update_RTOEib.part.16
0000000000034a30 t _ZN8FPPacket9setPacketEP13PacketElement.part.17
0000000000034a60 t _ZNSt7__cxx1112basic_stringIcSt11char_traitsIcESaIcEE12_M_constructIPcEEvT_S7_St20forward_iterator_tag.isra.94
0000000000034b40 t _ZL9find_ipv6PK13PacketElement.constprop.120
0000000000034bb0 t _ZL11find_icmpv6PK13PacketElement.constprop.117
0000000000034c20 t _ZL8find_tcpPK13PacketElement.constprop.118
0000000000034c90 t _ZL8make_tcpPK12sockaddr_in6S1_jtjjhtttPKcj.constprop.108
0000000000034e90 T _ZN16FPNetworkControlC1Ev
0000000000034f00 T _ZN16FPNetworkControl4initEPKc7devtype
00000000000350b0 T _ZN16FPNetworkControl7cc_initEv
00000000000350e0 T _ZN16FPNetworkControl14cc_update_sentEi
0000000000035100 T _ZN16FPNetworkControl14cc_report_dropEv
0000000000035140 T _ZN16FPNetworkControl18cc_update_receivedEv
00000000000351d0 T _ZN16FPNetworkControl23cc_report_final_timeoutEv
00000000000351f0 T _ZN16FPNetworkControl13request_slotsEm
00000000000352b0 T _ZN16FPNetworkControl17unregister_callerEP6FPHost
0000000000035360 T _ZN16FPNetworkControl13setup_snifferEPKcS1_
0000000000035400 T _ZN16FPNetworkControl13handle_eventsEv
0000000000035440 T _ZN16FPNetworkControl13scheduleProbeEP7FPProbei
0000000000035460 T _ZN8FPEngineC2Ev
0000000000035480 T _ZN8FPEngineD1Ev
0000000000035490 T _ZN8FPEngine10bpf_filterERSt6vectorIP6TargetSaIS2_EE
0000000000035610 T _ZN9FPEngine6C2Ev
0000000000035650 T _ZN9FPEngine6D1Ev
0000000000035680 T _ZN6FPHostC1Ev
0000000000035730 T _ZN6FPHostD1Ev
0000000000035740 T _ZN6FPHostD0Ev
0000000000035750 T _ZN6FPHost7__resetEv
00000000000357f0 T _ZN6FPHost16getTargetAddressEv
0000000000035810 T _ZN6FPHost14fail_one_probeEv
0000000000035830 T _ZN6FPHost10update_RTOEib
0000000000035850 T _ZN7FPHost620set_done_and_wrap_upEv
0000000000035990 T _ZN7FPHost68getProbeEPKc
0000000000035a00 T _ZN7FPHost611getResponseEPKc
0000000000035a70 T _ZN7FPHost66finishEv
0000000000035e00 T _ZN8FPPacket7__resetEv
0000000000035eb0 T _ZN8FPPacketC2Ev
0000000000035ed0 T _ZN8FPPacketD1Ev
0000000000035ee0 T _ZNK8FPPacket6is_setEv
0000000000035f00 T _ZN8FPPacket9setPacketEP13PacketElement
0000000000035f20 T _ZNK8FPPacket15getPacketBufferEPm
0000000000036410 T _ZNK8FPPacket9getPacketEv
0000000000036420 T _ZNK8FPPacket9getLengthEv
0000000000036470 T _ZN8FPPacket11setEthernetEPKhS1_PKc
0000000000036540 T _ZN7FPHost616build_probe_listEv
0000000000037720 T _ZNK8FPPacket11getEthernetEv
0000000000037740 T _ZN8FPPacket7setTimeEPK7timeval
0000000000037780 T _ZNK8FPPacket7getTimeEv
00000000000377a0 T _ZN7FPProbeD1Ev
00000000000377d0 T _ZN7FPProbe5resetEv
0000000000037830 T _ZN7FPProbeC2Ev
0000000000037880 T _ZN7FPHost65resetEv
0000000000037970 T _ZN7FPHost6D2Ev
00000000000379f0 T _ZN7FPHost6D0Ev
0000000000037a20 T _ZN7FPProbe10isResponseEP13PacketElement
0000000000037a90 T _ZN7FPProbe10setProbeIDEPKc
0000000000037ac0 T _ZNK7FPProbe10getProbeIDEv
0000000000037ad0 T _ZNK7FPProbe18getRetransmissionsEv
0000000000037ae0 T _ZN7FPProbe24incrementRetransmissionsEv
0000000000037b00 T _ZNK7FPProbe10getRepliesEv
0000000000037b10 T _ZN7FPProbe16incrementRepliesEv
0000000000037b30 T _ZN7FPProbe11setTimeSentEv
0000000000037b50 T _ZNK7FPProbe11getTimeSentEv
0000000000037b70 T _ZN7FPProbe13resetTimeSentEv
0000000000037b90 T _ZN8FPPacket9resetTimeEv
0000000000037ba0 T _ZNK7FPProbe11probeFailedEv
0000000000037bb0 T _ZN7FPProbe9setFailedEv
0000000000037bd0 T _ZNK7FPProbe7isTimedEv
0000000000037be0 T _ZN7FPProbe8setTimedEv
0000000000037c00 T _ZN7FPProbe19changeSourceAddressEP8in6_addr
0000000000037c50 T _ZN16FPNetworkControl26probe_transmission_handlerEP5npoolP6neventPv
0000000000038080 T _Z34probe_transmission_handler_wrapperP5npoolP6neventPv
00000000000380a0 T _ZN10FPResponseC1EPKcPKhm7timevalS4_
0000000000038120 T _ZN7FPHost68fill_FPREP22FingerPrintResultsIPv6
0000000000038230 T _ZN7FPHost68callbackEPKhmPK7timeval
0000000000038590 T _ZN10FPResponseD2Ev
00000000000385b0 T _ZN7FPHost68scheduleEv
0000000000038f60 T _ZN16FPNetworkControl15register_callerEP6FPHost
0000000000038fb0 T _ZN6FPHost19choose_osscan_portsEv
00000000000393c0 T _ZN7FPHost64initEP6TargetP16FPNetworkControl
00000000000394b0 T _ZN7FPHost6C1EP6TargetP16FPNetworkControl
0000000000039610 t _ZNSt8_Rb_treeINSt7__cxx1112basic_stringIcSt11char_traitsIcESaIcEEESt4pairIKS5_8FPPacketESt10_Select1stIS9_ESt4lessIS5_ESaIS9_EE17_M_insert_unique_INSF_11_Alloc_nodeEEESt17_Rb_tree_iteratorIS9_ESt23_Rb_tree_const_iteratorIS9_ERKS9_RT_.isra.107
00000000000397b0 T _ZN9FPEngine67os_scanERSt6vectorIP6TargetSaIS2_EE
000000000003c830 T _ZN16FPNetworkControl26response_reception_handlerEP5npoolP6neventPv
000000000003cdb0 T _Z34response_reception_handler_wrapperP5npoolP6neventPv
000000000003cdd0 w _ZNK13PacketElement14getNextElementEv
000000000003cde0 w _ZN13PacketElement14setPrevElementEPS_
000000000003ce00 w _ZN13PacketElement14setNextElementEPS_
000000000003ce40 w _ZN13PacketElement18dumpToBinaryBufferEPhi
000000000003d100 w _ZNSt4pairIKNSt7__cxx1112basic_stringIcSt11char_traitsIcESaIcEEE8FPPacketED2Ev
000000000003d160 w _ZNSt6vectorIP6FPHostSaIS1_EE13_M_insert_auxEN9__gnu_cxx17__normal_iteratorIPS1_S3_EERKS1_
000000000003d310 w _ZNSt8_Rb_treeINSt7__cxx1112basic_stringIcSt11char_traitsIcESaIcEEESt4pairIKS5_8FPPacketESt10_Select1stIS9_ESt4lessIS5_ESaIS9_EE8_M_eraseEPSt13_Rb_tree_nodeIS9_E
000000000003d3a0 w _ZNSt6vectorIP7FPHost6SaIS1_EE13_M_insert_auxEN9__gnu_cxx17__normal_iteratorIPS1_S3_EERKS1_
000000000003d550 w _ZNSt6vectorIP7FPHost6SaIS1_EE8_M_eraseEN9__gnu_cxx17__normal_iteratorIPS1_S3_EE
000000000003d5b0 w _ZNSt7__cxx1110_List_baseI12ScriptResultSaIS1_EE8_M_clearEv
000000000003d620 w _ZNSt8_Rb_treeINSt7__cxx1112basic_stringIcSt11char_traitsIcESaIcEEESt4pairIKS5_8FPPacketESt10_Select1stIS9_ESt4lessIS5_ESaIS9_EE24_M_get_insert_unique_posERS7_
000000000003d780 w _ZNSt8_Rb_treeINSt7__cxx1112basic_stringIcSt11char_traitsIcESaIcEEESt4pairIKS5_8FPPacketESt10_Select1stIS9_ESt4lessIS5_ESaIS9_EE29_M_get_insert_hint_unique_posESt23_Rb_tree_const_iteratorIS9_ERS7_
000000000003da40 T _Z15load_fp_matchesv
00000000000486b0 w _ZNSt6vectorI17OS_ClassificationSaIS0_EED1Ev
0000000000048720 w _ZNSt6vectorIPKcSaIS1_EE13_M_insert_auxEN9__gnu_cxx17__normal_iteratorIPS1_S3_EERKS1_
00000000000488d0 w _ZNSt6vectorIPKcSaIS1_EEaSERKS3_
0000000000048a40 w _ZNSt6vectorI17OS_ClassificationSaIS0_EE13_M_insert_auxEN9__gnu_cxx17__normal_iteratorIPS0_S2_EERKS0_
0000000000049230 w _ZNSt6vectorI17OS_ClassificationSaIS0_EE9push_backERKS0_
0000000000049340 w _ZNSt6vectorI17OS_ClassificationSaIS0_EEaSERKS2_
00000000000497f0 w _ZNSt6vectorI11FingerMatchSaIS0_EE13_M_insert_auxEN9__gnu_cxx17__normal_iteratorIPS0_S2_EERKS0_
000000000004a640 w _ZNSt6vectorI11FingerMatchSaIS0_EE9push_backERKS0_
000000000004a880 t _ZL13ipid_distanceijj
000000000004a8c0 t _ZL24ipv6_force_fragmentationP15idle_proxy_infoP6Target.constprop.10
000000000004aef0 t _ZL18adjust_idle_timingP15idle_proxy_infoP6Targetii.isra.3.constprop.12
000000000004b170 T _Z20ipv6_get_fragment_idPK7ip6_hdrj
000000000004b1f0 t _ZL16ipid_proxy_probeP15idle_proxy_infoPiS1_.constprop.11
000000000004b8f0 t _ZL19idlescan_countopen2P15idle_proxy_infoP6TargetPtiP7timevalS5_.constprop.8
000000000004c4c0 t _ZL18idlescan_countopenP15idle_proxy_infoP6TargetPtiP7timevalS5_.constprop.7
000000000004c610 t _ZL13idle_treescanP15idle_proxy_infoP6TargetPtii.constprop.6
000000000004cdc0 T _Z9idle_scanP6TargetPtiPcPK10scan_lists
000000000004e350 w _ZN15idle_proxy_infoD1Ev
000000000004e360 t _ZNSt7__cxx1112basic_stringIcSt11char_traitsIcESaIcEE12_M_constructIPcEEvT_S7_St20forward_iterator_tag.isra.49
000000000004e440 t _ZL15mac_prefix_initv
000000000004ec50 T _Z14MACPrefix2CorpPKh
000000000004ed00 T _Z14MACCorp2PrefixPKcPh
000000000004edc0 w _ZNSt8_Rb_treeIiSt4pairIKiPcESt10_Select1stIS3_ESt4lessIiESaIS3_EE8_M_eraseEPSt13_Rb_tree_nodeIS3_E
000000000004ee10 w _ZNSt3mapIiPcSt4lessIiESaISt4pairIKiS0_EEED2Ev
000000000004ee30 w _ZNSt8_Rb_treeINSt7__cxx1112basic_stringIcSt11char_traitsIcESaIcEEESt4pairIKS5_S5_ESt10_Select1stIS8_ESt4lessIS5_ESaIS8_EE24_M_get_insert_unique_posERS7_
000000000004ef90 w _ZNSt8_Rb_treeINSt7__cxx1112basic_stringIcSt11char_traitsIcESaIcEEESt4pairIKS5_S5_ESt10_Select1stIS8_ESt4lessIS5_ESaIS8_EE29_M_get_insert_hint_unique_posESt23_Rb_tree_const_iteratorIS8_ERS7_
000000000004f250 w _ZNSt8_Rb_treeIiSt4pairIKiPcESt10_Select1stIS3_ESt4lessIiESaIS3_EE24_M_get_insert_unique_posERS1_
000000000004f2d0 w _ZNSt8_Rb_treeIiSt4pairIKiPcESt10_Select1stIS3_ESt4lessIiESaIS3_EE29_M_get_insert_hint_unique_posESt23_Rb_tree_const_iteratorIS3_ERS1_
000000000004f3d0 t _ZL19connect_evt_handlerP5npoolP6neventPv
000000000004f3e0 t _ZL14output_summaryv
000000000004f4f0 t _ZL17close_dns_serversv
000000000004f600 t _ZL21nmap_system_rdns_corePP6Targeti
000000000004f880 t _ZL16check_capacitiesP10dns_server
000000000004f8f0 t _ZN3DNS7Factory18parseUnsignedShortERtPKhmm.part.18
000000000004f920 t _ZN3DNS7Factory16parseUnsignedIntERjPKhmm.part.19
000000000004f960 T _ZN3DNS8A_Record15parseFromBufferEPKhmm
000000000004fa10 t _ZNSt7__cxx1112basic_stringIcSt11char_traitsIcESaIcEE12_M_constructIPcEEvT_S7_St20forward_iterator_tag.isra.90
000000000004faf0 t _ZL14add_dns_serverPc
0000000000050120 t _ZL19parse_resolvdotconfv
0000000000050280 t _ZL10init_servsv.part.139
00000000000502b0 T _Z15get_dns_serversB5cxx11v
0000000000050490 T _ZN3DNS7Factory16putUnsignedShortEtPhmm
00000000000504d0 T _ZN3DNS7Factory13putDomainNameERKNSt7__cxx1112basic_stringIcSt11char_traitsIcESaIcEEEPhmm
00000000000507d0 T _ZN3DNS7Factory18buildSimpleRequestERKNSt7__cxx1112basic_stringIcSt11char_traitsIcESaIcEEENS_11RECORD_TYPEEPhm
00000000000508c0 T _ZN3DNS7Factory18parseUnsignedShortERtPKhmm
00000000000508f0 T _ZN3DNS7Factory16parseUnsignedIntERjPKhmm
0000000000050920 T _ZN3DNS7Factory15parseDomainNameERNSt7__cxx1112basic_stringIcSt11char_traitsIcESaIcEEEPKhmm
0000000000050c80 t _ZN3DNS5Query15parseFromBufferEPKhmm.part.72
0000000000050d20 t _ZN3DNS6Answer15parseFromBufferEPKhmm.part.73
0000000000050f10 T _ZN3DNS5Query15parseFromBufferEPKhmm
0000000000050f40 T _ZN3DNS6Answer15parseFromBufferEPKhmm
0000000000050f70 T _ZN3DNS6AnsweraSERKS0_
0000000000050fd0 T _ZN3DNS7Factory7ptrToIpERKNSt7__cxx1112basic_stringIcSt11char_traitsIcESaIcEEER16sockaddr_storage
0000000000051540 T _ZN3DNS7Factory7ipToPtrERK16sockaddr_storageRNSt7__cxx1112basic_stringIcSt11char_traitsIcESaIcEEE
0000000000051b80 T _ZN3DNS7Factory19buildReverseRequestERK16sockaddr_storagePhm
0000000000051c50 t _ZL22put_dns_packet_on_wireP7request
0000000000051da0 t _ZL18do_possible_writesv
0000000000051ef0 T _ZN3DNS6Packet15parseFromBufferEPKhm
00000000000523e0 t _ZL24deal_with_timedout_readsv
0000000000052790 t _ZL19nmap_mass_rdns_corePP6Targeti
0000000000053e30 T _Z14nmap_mass_rdnsPP6Targeti
0000000000054060 t _ZL14process_resultRK16sockaddr_storageRKNSt7__cxx1112basic_stringIcSt11char_traitsIcESaIcEEEit
00000000000542d0 t _ZL16read_evt_handlerP5npoolP6neventPv
0000000000054a00 t _ZL17write_evt_handlerP5npoolP6neventPv
0000000000054b90 w _ZN3DNS8A_RecordD1Ev
0000000000054ba0 w _ZN8HostElem13isTimeToCleanES_
0000000000054bd0 w _ZN3DNS8A_Record5cloneEv
0000000000054c80 w _ZN3DNS8A_RecordD0Ev
0000000000054c90 w _ZN3DNS12CNAME_RecordD2Ev
0000000000054cd0 w _ZN3DNS12CNAME_RecordD0Ev
0000000000054d10 w _ZN3DNS10PTR_RecordD1Ev
0000000000054d50 w _ZN3DNS10PTR_RecordD0Ev
0000000000054d90 w _ZNSt7__cxx114listIP7requestSaIS2_EED2Ev
0000000000054dd0 w _ZN9HostCacheD1Ev
0000000000054e80 w _ZN3DNS12CNAME_Record5cloneEv
0000000000054ee0 w _ZN3DNS10PTR_Record5cloneEv
0000000000054f40 w _ZNSt7__cxx114listI10dns_serverSaIS1_EED2Ev
0000000000054ff0 w _ZN9HostCache3addERK16sockaddr_storageRKNSt7__cxx1112basic_stringIcSt11char_traitsIcESaIcEEE
0000000000055680 w _ZN3DNS12CNAME_Record15parseFromBufferEPKhmm
00000000000556a0 w _ZN3DNS10PTR_Record15parseFromBufferEPKhmm
00000000000556c0 w _ZStplIcSt11char_traitsIcESaIcEENSt7__cxx1112basic_stringIT_T0_T1_EES5_RKS8_
0000000000055750 w _ZNSt7__cxx1110_List_baseIN3DNS5QueryESaIS2_EE8_M_clearEv
00000000000557a0 w _ZNSt7__cxx1110_List_baseIN3DNS6AnswerESaIS2_EE8_M_clearEv
0000000000055820 w _ZNSt8_Rb_treeItSt4pairIKt4infoESt10_Select1stIS3_ESt4lessItESaIS3_EE8_M_eraseEPSt13_Rb_tree_nodeIS3_E
0000000000055870 w _ZNSt3mapIt4infoSt4lessItESaISt4pairIKtS0_EEED2Ev
0000000000055890 w _ZNSt8_Rb_treeItSt4pairIKt4infoESt10_Select1stIS3_ESt4lessItESaIS3_EE12_M_erase_auxESt23_Rb_tree_const_iteratorIS3_E
00000000000558d0 w _ZNSt8_Rb_treeItSt4pairIKt4infoESt10_Select1stIS3_ESt4lessItESaIS3_EE24_M_get_insert_unique_posERS1_
0000000000055960 w _ZNSt8_Rb_treeItSt4pairIKt4infoESt10_Select1stIS3_ESt4lessItESaIS3_EE29_M_get_insert_hint_unique_posESt23_Rb_tree_const_iteratorIS3_ERS1_
0000000000055a60 T fatal
0000000000055c50 T error
0000000000055d30 T pfatal
0000000000055f20 T gh_perror
0000000000056040 t _ZL26nmap_fetchfile_userdir_uidPcmPKci
00000000000560c0 t _ZL18nmap_fetchfile_subPciPKc
0000000000056440 t _ZL14test_file_namePKcS0_
00000000000564d0 t _ZNSt7__cxx1112basic_stringIcSt11char_traitsIcESaIcEE12_M_constructIPcEEvT_S7_St20forward_iterator_tag.isra.130
00000000000565b0 T _Z16set_program_namePKc
00000000000565d0 T _Z19validate_scan_listsR10scan_listsR7NmapOps
0000000000056870 T _Z13nmap_free_memv
00000000000568a0 T _Z31gather_logfile_resumption_statePcPiPPS_
0000000000056d20 T _Z14nmap_fetchfilePciPKc
0000000000056fb0 t _ZL17get_word_or_quotePKcj
0000000000057330 T _Z13parse_optionsiPPc
000000000005c9f0 T _Z21apply_delayed_optionsv
000000000005d8c0 T _Z9nmap_mainiPPc
000000000005f6c0 w _ZNSt6vectorINSt7__cxx1112basic_stringIcSt11char_traitsIcESaIcEEESaIS5_EED1Ev
000000000005f730 w _ZN15delayed_optionsD2Ev
000000000005f7b0 w _ZNSt7__cxx1115basic_stringbufIcSt11char_traitsIcESaIcEED1Ev
000000000005f7f0 w _ZNSt7__cxx1115basic_stringbufIcSt11char_traitsIcESaIcEED0Ev
000000000005f840 w _ZNSt6vectorI11FingerMatchSaIS0_EED1Ev
000000000005f8e0 w _ZStplIcSt11char_traitsIcESaIcEENSt7__cxx1112basic_stringIT_T0_T1_EERKS8_SA_
000000000005f950 w _ZNSt6vectorINSt7__cxx1112basic_stringIcSt11char_traitsIcESaIcEEESaIS5_EE13_M_insert_auxEN9__gnu_cxx17__normal_iteratorIPS5_S7_EERKS5_
000000000005fd30 w _ZN15delayed_options15warn_deprecatedEPKcS1_
00000000000602a0 w _ZNSt6vectorIP6TargetSaIS1_EE13_M_insert_auxEN9__gnu_cxx17__normal_iteratorIPS1_S3_EERKS1_
0000000000060450 w _ZNSt8_Rb_treeINSt7__cxx1112basic_stringIcSt11char_traitsIcESaIcEEES5_St9_IdentityIS5_ESt4lessIS5_ESaIS5_EE8_M_eraseEPSt13_Rb_tree_nodeIS5_E
00000000000604b0 w _ZNSt3mapINSt7__cxx1112basic_stringIcSt11char_traitsIcESaIcEEES5_St4lessIS5_ESaISt4pairIKS5_S5_EEEixERS9_
0000000000060850 w _ZNSt6vectorI11FingerMatchSaIS0_EEaSERKS2_
0000000000060ff0 T _Z19get_default_ftpinfov
0000000000061040 T _Z21parse_bounce_argumentP7ftpinfoPc
0000000000061140 T _Z16ftp_anon_connectP7ftpinfo
0000000000061590 T _Z11bounce_scanP6TargetPtiP7ftpinfo
0000000000061d90 t _ZNSt7__cxx1112basic_stringIcSt11char_traitsIcESaIcEE12_M_constructIPcEEvT_S7_St20forward_iterator_tag.isra.59
0000000000061e70 t _ZL15filename_to_urlPKc
0000000000062120 T _ZN7NmapOps2pfEv
0000000000062140 T _ZN7NmapOps14SourceSockAddrEP16sockaddr_storagePm
00000000000621d0 T _ZNK7NmapOps14SourceSockAddrEv
0000000000062200 T _ZN7NmapOps17setSourceSockAddrEP16sockaddr_storagem
0000000000062250 T _ZN7NmapOps14TimeSinceStartEPK7timeval
00000000000622f0 T _ZN7NmapOps10InitializeEv
0000000000062870 T _ZN7NmapOps6ReInitEv
0000000000062880 T _ZN7NmapOps8SCTPScanEv
00000000000628a0 T _ZN7NmapOps7TCPScanEv
00000000000628f0 T _ZN7NmapOps7UDPScanEv
0000000000062910 T _ZN7NmapOps7RawScanEv
00000000000629e0 T _ZN7NmapOps15ValidateOptionsEv
0000000000063150 T _ZN7NmapOps13setMaxOSTriesEi
0000000000063180 T _ZN7NmapOps16setMaxRttTimeoutEi
00000000000631d0 T _ZN7NmapOps16setMinRttTimeoutEi
0000000000063220 T _ZN7NmapOps20setInitialRttTimeoutEi
0000000000063270 T _ZN7NmapOps21setMaxRetransmissionsEi
00000000000632a0 T _ZN7NmapOps17setMinHostGroupSzEj
00000000000632d0 T _ZN7NmapOps17setMaxHostGroupSzEj
0000000000063310 T _ZN7NmapOps16setXSLStyleSheetEPKc
0000000000063360 T _ZN7NmapOps13XSLStyleSheetEv
0000000000063410 T _ZN7NmapOps18setSpoofMACAddressEPh
0000000000063440 T _ZN7NmapOpsC2Ev
0000000000063570 T _ZN7NmapOpsD2Ev
0000000000063850 T _ZN7NmapOps13chooseScriptsEPc
0000000000063a10 w _ZNSt8_Rb_treeINSt7__cxx1112basic_stringIcSt11char_traitsIcESaIcEEESt4pairIKS5_S5_ESt10_Select1stIS8_ESt4lessIS5_ESaIS8_EE8_M_eraseEPSt13_Rb_tree_nodeIS8_E
0000000000063a80 T _ZN15NmapOutputTableC1Eii
0000000000063b30 T _ZN15NmapOutputTableD2Ev
0000000000063c30 T _ZN15NmapOutputTable7addItemEjjbPKci
0000000000063da0 T _ZN15NmapOutputTable7addItemEjjbbPKci
0000000000063e70 T _ZN15NmapOutputTable16addItemFormattedEjjbPKcz
0000000000064010 T _ZN15NmapOutputTable8emptyRowEj
0000000000064090 T _ZN15NmapOutputTable14printableTableEPi
0000000000064350 t _ZL8tty_donev
0000000000064390 t _ZL15install_handleriPFviE
0000000000064400 t _ZL14shutdown_cleani
0000000000064470 T _Z8tty_initv
00000000000645c0 T _Z13keyWasPressedv
0000000000064950 t _ZL18make_aval_ipid_seqP4AValPKciPj
0000000000064a00 t _ZN9ScanStats6sendOKEv.part.13
0000000000064a30 t _ZL13begin_snifferP10HostOsScanRSt6vectorIP6TargetSaIS3_EE.isra.19.constprop.149
0000000000064cf0 T _Z21get_initial_ttl_guessh
0000000000064d20 T _Z17identify_sequenceiPji
0000000000064e80 T _Z9get_diffsPjiS_i
0000000000064f10 T _Z20get_ipid_sequence_32iPji
0000000000064fb0 T _Z20get_ipid_sequence_16iPji
0000000000065070 T _Z20seqidx2difficultystrm
00000000000650c0 T _Z15ipidclass2asciii
00000000000650e0 T _Z16tsseqclass2asciii
0000000000065100 T _ZN7OFProbeC1Ev
0000000000065150 T _ZN7OFProbe7typestrEv
0000000000065200 T _ZN15HostOsScanStatsC2EP6Target
00000000000653d0 T _ZN15HostOsScanStatsD2Ev
0000000000065560 T _ZNK15HostOsScanStats12fill_eth_nfoEP7eth_nfoP10eth_handle
00000000000655d0 T _ZN15HostOsScanStats11addNewProbeE11OFProbeTypei
0000000000065640 T _ZN15HostOsScanStats17removeActiveProbeESt14_List_iteratorIP7OFProbeE
0000000000065680 T _ZN15HostOsScanStats14getActiveProbeE11OFProbeTypei
0000000000065700 T _ZN15HostOsScanStats21moveProbeToActiveListESt14_List_iteratorIP7OFProbeE
0000000000065760 T _ZN15HostOsScanStats21moveProbeToUnSendListESt14_List_iteratorIP7OFProbeE
00000000000657c0 T _ZN15HostOsScanStats11timingRatioEv
00000000000658d0 T _ZN10HostOsScan12adjust_timesEP15HostOsScanStatsP7OFProbeP7timeval
0000000000065ac0 T _ZN10HostOsScanD2Ev
0000000000065b10 T _ZN10HostOsScan16reInitScanSystemEv
0000000000065b90 T _ZN10HostOsScan17buildSeqProbeListEP15HostOsScanStats
0000000000065c00 T _ZN10HostOsScan17buildTUIProbeListEP15HostOsScanStats
0000000000065db0 T _ZN10HostOsScan16timeProbeTimeoutEP15HostOsScanStats
0000000000065e10 T _ZN10HostOsScan11nextTimeoutEP15HostOsScanStatsP7timeval
0000000000065fc0 T _ZN10HostOsScan10hostSendOKEP15HostOsScanStatsP7timeval
0000000000066410 T _ZN10HostOsScan13hostSeqSendOKEP15HostOsScanStatsP7timeval
0000000000066820 T _ZN10HostOsScan21updateActiveSeqProbesEP15HostOsScanStats
0000000000066910 T _ZN10HostOsScan21updateActiveTUIProbesEP15HostOsScanStats
0000000000066a30 T _ZN10HostOsScan14send_tcp_probeEP15HostOsScanStatsibPhittjjhhttS2_iPct
0000000000066b60 T _ZN10HostOsScan13sendTSeqProbeEP15HostOsScanStatsi
0000000000066c50 T _ZN10HostOsScan13sendTOpsProbeEP15HostOsScanStatsi
0000000000066d10 T _ZN10HostOsScan13sendTEcnProbeEP15HostOsScanStats
0000000000066d90 T _ZN10HostOsScan13sendT1_7ProbeEP15HostOsScanStatsi
0000000000066fd0 T _ZN10HostOsScan20send_icmp_echo_probeEP15HostOsScanStatshbhttt
0000000000067180 T _ZN10HostOsScan14sendTIcmpProbeEP15HostOsScanStatsi
0000000000067230 T _ZN10HostOsScan20send_closedudp_probeEP15HostOsScanStatsitt
00000000000675b0 T _ZN10HostOsScan13sendTUdpProbeEP15HostOsScanStatsi
0000000000067600 T _ZN10HostOsScan13sendNextProbeEP15HostOsScanStats
00000000000677c0 T _ZN9ScanStatsC1Ev
0000000000067830 T _ZN10HostOsScanC1EP6Target
0000000000067990 T _ZN9ScanStats6sendOKEv
00000000000679c0 T _ZN10HostOsScan15processTSeqRespEP15HostOsScanStatsP2ipi
0000000000067b90 T _ZN10HostOsScan15processTWinRespEP15HostOsScanStatsP7tcp_hdri
0000000000067cb0 T _ZN10HostOsScan17get_tcpopt_stringEP7tcp_hdriPci
0000000000067ed0 T _ZN10HostOsScan15processTOpsRespEP15HostOsScanStatsP7tcp_hdri
0000000000068080 T _ZN14HostOsScanInfoC1EP6TargetP10OsScanInfo
0000000000068200 T _ZN14HostOsScanInfoD1Ev
00000000000682a0 T _ZN10OsScanInfoC1ERSt6vectorIP6TargetSaIS2_EE
00000000000684b0 T _ZN10OsScanInfoD2Ev
0000000000068550 T _ZN10OsScanInfo18findIncompleteHostEP16sockaddr_storage
00000000000685d0 T _ZN10OsScanInfo18nextIncompleteHostEv
0000000000068620 T _ZN10OsScanInfo20removeCompletedHostsEv
00000000000687e0 T _ZN6OSScanC2Ev
00000000000687f0 T _ZN6OSScanD2Ev
0000000000068800 T _ZN6OSScan5resetEv
0000000000068810 T _ZN15HostOsScanStats13initScanStatsEv
0000000000068ef0 T _ZN10HostOsScan10makeTOpsFPEP15HostOsScanStats
0000000000069090 T _ZN10HostOsScan10makeTWinFPEP15HostOsScanStats
0000000000069230 T _ZN10HostOsScan10makeTSeqFPEP15HostOsScanStats
0000000000069f60 T _ZN10HostOsScan16processTIcmpRespEP15HostOsScanStatsP2ipi
000000000006a380 T _ZN10HostOsScan15processTEcnRespEP15HostOsScanStatsP2ip
000000000006a920 T _ZN10HostOsScan15processT1_7RespEP15HostOsScanStatsP2ipi
000000000006b270 T _ZN10HostOsScan15processTUdpRespEP15HostOsScanStatsP2ip
000000000006b930 t _ZN10HostOsScan11processRespEP15HostOsScanStatsP2ipjP7timeval.part.128
000000000006bd90 T _ZN10HostOsScan11processRespEP15HostOsScanStatsP2ipjP7timeval
000000000006bdb0 T _ZN10HostOsScan6makeFPEP15HostOsScanStats
000000000006c270 T _ZN6OSScan12os_scan_ipv4ERSt6vectorIP6TargetSaIS2_EE
000000000006da00 T _ZN6OSScan12os_scan_ipv6ERSt6vectorIP6TargetSaIS2_EE
000000000006da90 T _ZN6OSScan17chunk_and_do_scanERSt6vectorIP6TargetSaIS2_EEi
000000000006dd90 T _ZN6OSScan7os_scanERSt6vectorIP6TargetSaIS2_EE
000000000006df90 w _ZNSt6vectorI4AValSaIS0_EE7reserveEm
000000000006e070 w _ZNSt6vectorI4AValSaIS0_EEaSERKS2_
000000000006e1e0 w _ZNSt6vectorI4AValSaIS0_EE13_M_insert_auxEN9__gnu_cxx17__normal_iteratorIPS0_S2_EERKS0_
000000000006e3b0 w _ZNSt6vectorI10FingerTestSaIS0_EE13_M_insert_auxEN9__gnu_cxx17__normal_iteratorIPS0_S2_EERKS0_
000000000006eaa0 t _ZL18test_match_literalPK10FingerTestS1_
000000000006eb10 t _ZL19FingerTest_lessthanPK10FingerTestS1_
000000000006ecc0 t _ZL10expr_matchPKcS0_
000000000006f050 t _ZL8test2strPK10FingerTestPcm.part.23
000000000006f1a0 t _ZSt13__lower_boundIN9__gnu_cxx17__normal_iteratorIP4AValSt6vectorIS2_SaIS2_EEEES2_NS0_5__ops14_Iter_less_valEET_SA_SA_RKT0_T1_.isra.144
000000000006f230 t _ZSt13__upper_boundIN9__gnu_cxx17__normal_iteratorIP4AValSt6vectorIS2_SaIS2_EEEES2_NS0_5__ops14_Val_less_iterEET_SA_SA_RKT0_T1_.isra.145
000000000006f2c0 t _ZSt13__lower_boundIN9__gnu_cxx17__normal_iteratorIP10FingerTestSt6vectorIS2_SaIS2_EEEES2_NS0_5__ops14_Iter_less_valEET_SA_SA_RKT0_T1_.isra.152
000000000006f350 t _ZSt13__upper_boundIN9__gnu_cxx17__normal_iteratorIP10FingerTestSt6vectorIS2_SaIS2_EEEES2_NS0_5__ops14_Val_less_iterEET_SA_SA_RKT0_T1_.isra.153
000000000006f3e0 t _ZNSt7__cxx1112basic_stringIcSt11char_traitsIcESaIcEE12_M_constructIPcEEvT_S7_St20forward_iterator_tag.isra.222
000000000006f4c0 T _Z18string_pool_insertPKc
000000000006f8a0 T _Z18string_pool_substrPKcS0_
000000000006f940 T _Z24string_pool_substr_stripPKcS0_
000000000006f9b0 T _Z19string_pool_sprintfPKcz
000000000006fb10 T _ZN13FingerPrintDBC2Ev
000000000006fb40 T _ZN13FingerPrintDBD1Ev
000000000006fcc0 T _ZN11FingerPrintC2Ev
000000000006fd10 T _Z20compare_fingerprintsPK11FingerPrintS1_S1_i
00000000000702a0 T _Z10WriteSInfoPcibPKcPK16sockaddr_storagei16dist_calc_methodPKhiii
0000000000070500 T _Z8fp2asciiP11FingerPrint
00000000000705b0 t _ZL8str2AValPKc
0000000000070860 T _Z8mergeFPsPP11FingerPrintibPK16sockaddr_storagei16dist_calc_methodPKhiiib
0000000000070db0 t _ZL13parse_cpelineP11FingerPrintPci
0000000000070f00 t _ZL15parse_classlineP11FingerPrintPci
00000000000711d0 T _Z24parse_single_fingerprintPc
0000000000071690 T _ZN11FingerPrint4sortEv
0000000000071a80 T _Z17match_fingerprintPK11FingerPrintP22FingerPrintResultsIPv4PK13FingerPrintDBd
0000000000072040 T _Z22parse_fingerprint_filePKc
00000000000726d0 T _Z32parse_fingerprint_reference_filePKc
0000000000072bc0 w _ZNSt6vectorI10FingerTestSaIS0_EEaSERKS2_
0000000000073010 t _ZSt12__move_mergeIP10FingerTestN9__gnu_cxx17__normal_iteratorIS1_St6vectorIS0_SaIS0_EEEENS2_5__ops15_Iter_less_iterEET0_T_SB_SB_SB_SA_T1_.isra.205
0000000000073170 w _ZNSt3setINSt7__cxx1112basic_stringIcSt11char_traitsIcESaIcEEESt4lessIS5_ESaIS5_EED1Ev
0000000000073190 w _ZNSt7__cxx114listIPK10FingerTestSaIS3_EE5mergeIPFbS3_S3_EEEvRS5_T_
0000000000073230 w _ZNSt7__cxx114listIPK10FingerTestSaIS3_EE4sortIPFbS3_S3_EEEvT_
0000000000073510 w _ZNSt6vectorIP11FingerPrintSaIS1_EE13_M_insert_auxEN9__gnu_cxx17__normal_iteratorIPS1_S3_EERKS1_
00000000000736c0 w _ZSt16__insertion_sortIN9__gnu_cxx17__normal_iteratorIP4AValSt6vectorIS2_SaIS2_EEEENS0_5__ops15_Iter_less_iterEEvT_SA_T0_
00000000000737a0 w _ZSt25__unguarded_linear_insertIN9__gnu_cxx17__normal_iteratorIP10FingerTestSt6vectorIS2_SaIS2_EEEENS0_5__ops14_Val_less_iterEEvT_T0_
0000000000073920 w _ZSt16__insertion_sortIN9__gnu_cxx17__normal_iteratorIP10FingerTestSt6vectorIS2_SaIS2_EEEENS0_5__ops15_Iter_less_iterEEvT_SA_T0_
0000000000073b00 w _ZNSt3_V28__rotateIN9__gnu_cxx17__normal_iteratorIP4AValSt6vectorIS3_SaIS3_EEEEEET_S9_S9_S9_St26random_access_iterator_tag
0000000000073d50 w _ZSt22__merge_without_bufferIN9__gnu_cxx17__normal_iteratorIP4AValSt6vectorIS2_SaIS2_EEEElNS0_5__ops15_Iter_less_iterEEvT_SA_SA_T0_SB_T1_
0000000000073ef0 w _ZSt21__inplace_stable_sortIN9__gnu_cxx17__normal_iteratorIP4AValSt6vectorIS2_SaIS2_EEEENS0_5__ops15_Iter_less_iterEEvT_SA_T0_
0000000000073fa0 w _ZSt16__merge_adaptiveIN9__gnu_cxx17__normal_iteratorIP4AValSt6vectorIS2_SaIS2_EEEElS3_NS0_5__ops15_Iter_less_iterEEvT_SA_SA_T0_SB_T1_SB_T2_
0000000000074530 w _ZSt12__move_mergeIN9__gnu_cxx17__normal_iteratorIP4AValSt6vectorIS2_SaIS2_EEEES3_NS0_5__ops15_Iter_less_iterEET0_T_SB_SB_SB_SA_T1_
0000000000074650 w _ZSt12__move_mergeIP4AValN9__gnu_cxx17__normal_iteratorIS1_St6vectorIS0_SaIS0_EEEENS2_5__ops15_Iter_less_iterEET0_T_SB_SB_SB_SA_T1_
0000000000074740 t _ZSt24__merge_sort_with_bufferIN9__gnu_cxx17__normal_iteratorIP4AValSt6vectorIS2_SaIS2_EEEES3_NS0_5__ops15_Iter_less_iterEEvT_SA_T0_T1_.isra.201
0000000000074980 w _ZSt22__stable_sort_adaptiveIN9__gnu_cxx17__normal_iteratorIP4AValSt6vectorIS2_SaIS2_EEEES3_lNS0_5__ops15_Iter_less_iterEEvT_SA_T0_T1_T2_
0000000000074a60 w _ZNSt3_V28__rotateIN9__gnu_cxx17__normal_iteratorIP10FingerTestSt6vectorIS3_SaIS3_EEEEEET_S9_S9_S9_St26random_access_iterator_tag
0000000000074f70 w _ZSt22__merge_without_bufferIN9__gnu_cxx17__normal_iteratorIP10FingerTestSt6vectorIS2_SaIS2_EEEElNS0_5__ops15_Iter_less_iterEEvT_SA_SA_T0_SB_T1_
0000000000075210 w _ZSt21__inplace_stable_sortIN9__gnu_cxx17__normal_iteratorIP10FingerTestSt6vectorIS2_SaIS2_EEEENS0_5__ops15_Iter_less_iterEEvT_SA_T0_
00000000000752c0 w _ZSt17__rotate_adaptiveIN9__gnu_cxx17__normal_iteratorIP10FingerTestSt6vectorIS2_SaIS2_EEEES3_lET_S8_S8_S8_T1_S9_T0_S9_
00000000000755a0 w _ZSt16__merge_adaptiveIN9__gnu_cxx17__normal_iteratorIP10FingerTestSt6vectorIS2_SaIS2_EEEElS3_NS0_5__ops15_Iter_less_iterEEvT_SA_SA_T0_SB_T1_SB_T2_
00000000000759d0 w _ZSt12__move_mergeIN9__gnu_cxx17__normal_iteratorIP10FingerTestSt6vectorIS2_SaIS2_EEEES3_NS0_5__ops15_Iter_less_iterEET0_T_SB_SB_SB_SA_T1_
0000000000075b30 t _ZSt24__merge_sort_with_bufferIN9__gnu_cxx17__normal_iteratorIP10FingerTestSt6vectorIS2_SaIS2_EEEES3_NS0_5__ops15_Iter_less_iterEEvT_SA_T0_T1_.isra.206
0000000000075d70 w _ZSt22__stable_sort_adaptiveIN9__gnu_cxx17__normal_iteratorIP10FingerTestSt6vectorIS2_SaIS2_EEEES3_lNS0_5__ops15_Iter_less_iterEEvT_SA_T0_T1_T2_
0000000000075e50 t _ZL17scriptid_lessthan12ScriptResultS_
0000000000075e90 t _ZL17write_xml_osclassPK17OS_Classificationd
0000000000075fd0 t _ZL17write_xml_osmatchPK11FingerMatchd
0000000000076110 t _ZNSt7__cxx1112basic_stringIcSt11char_traitsIcESaIcEE12_M_constructIPKcEEvT_S8_St20forward_iterator_tag.isra.118
00000000000761f0 t _ZL19addtochararrayifnewPPKcPiiS0_.constprop.144
0000000000076270 t _ZL12scrub_packetP13PacketElementh.constprop.143
0000000000076370 t _ZL17escape_for_screenNSt7__cxx1112basic_stringIcSt11char_traitsIcESaIcEEE
0000000000076530 T _Z11protect_xmlNSt7__cxx1112basic_stringIcSt11char_traitsIcESaIcEEE
00000000000765e0 T _Z11logfilenamePKcP2tm
00000000000768c0 T _Z10log_vwriteiPKcP13__va_list_tag
0000000000076c60 T _Z9log_writeiPKcz
0000000000076da0 t _ZL28output_rangelist_given_portsiPti
0000000000076e80 t _ZL10doscaninfoPKcS0_Pti
0000000000077110 t _ZL16write_merged_fprPK18FingerPrintResultsPK6Targetbb.constprop.142
00000000000771a0 T _Z9log_closei
00000000000771f0 T _Z9log_flushi
0000000000077290 t _ZL22printtraceroute_normalP6Target
0000000000077810 T _Z13log_flush_allv
0000000000077860 T _Z12print_iflistv
0000000000077e90 t _ZL26write_xml_initial_hostinfoP6TargetPKc
0000000000078180 T _Z8log_openiiPc
00000000000782a0 T _Z40output_ports_to_machine_parseable_outputP10scan_lists
00000000000783c0 T _Z11join_quotedB5cxx11PKPKcj
0000000000078820 T _Z27output_xml_scaninfo_recordsP10scan_lists
0000000000078a80 T _Z17write_host_statusP6Target
0000000000078e20 T _Z17write_host_headerP6Target
00000000000790b0 T _Z12printmacinfoP6Target
0000000000079160 T _ZNK22FingerPrintResultsIPv49merge_fprEPK6Targetbb
0000000000079210 T _Z17printosscanoutputP6Target
000000000007a450 T _Z15printtracerouteP6Target
000000000007a670 T _Z10printtimesP6Target
000000000007a740 T _Z18printStatusMessagev
000000000007a820 T _Z23print_xml_finished_openlPK7timeval
000000000007a960 T _Z15print_xml_hostsv
000000000007a9d0 T _Z16printfinaloutputv
000000000007ad00 T _Z20nmap_adjust_loglevelb
000000000007ad40 T _Z24nmap_nsock_stderr_loggerPK13nsock_log_rec
000000000007add0 T _ZNK22FingerPrintResultsIPv69merge_fprEPK6Targetbb
000000000007d130 t _ZL18formatScriptOutput12ScriptResult.constprop.145
000000000007d930 T _Z22printserviceinfooutputP6Target
000000000007df50 T _Z18printscriptresultsPNSt7__cxx114listI12ScriptResultSaIS1_EEE5stype
000000000007e100 T _Z22printhostscriptresultsP6Target
000000000007e290 T _Z15printportoutputP6TargetP8PortList
000000000007f830 T _Z18printdatafilepathsv
000000000007fe20 w _ZNKSt5ctypeIcE8do_widenEc
000000000007fe30 w _ZN13PacketElement15getBinaryBufferEPi
00000000000802c0 w _ZN13PacketElement15getBinaryBufferEv
00000000000807f0 w _ZN12ScriptResultD1Ev
0000000000080840 w _ZNSt7__cxx114listI12ScriptResultSaIS1_EE5mergeIPFbS1_S1_EEEvRS3_T_
0000000000080ad0 w _ZNSt7__cxx114listI12ScriptResultSaIS1_EE4sortIPFbS1_S1_EEEvT_
0000000000080d60 w _ZNSt7__cxx1110_List_baseI16data_file_recordSaIS1_EE8_M_clearEv
0000000000080de0 w _ZNSt7__cxx114listI16data_file_recordSaIS1_EE5mergeERS3_
0000000000080f30 w _ZNSt7__cxx114listI16data_file_recordSaIS1_EE4sortEv
0000000000081150 t _ZL10next_tokenP8_IO_FILEP5token
0000000000081350 t _ZNSt7__cxx1112basic_stringIcSt11char_traitsIcESaIcEE12_M_constructIPcEEvT_S7_St20forward_iterator_tag.isra.51
0000000000081430 T _Z16udp_port2payloadtPm
00000000000814d0 T _Z15get_udp_payloadtPm
0000000000081510 t _ZL23load_payloads_from_fileP8_IO_FILE
0000000000081c50 T _Z13init_payloadsv
00000000000821b0 w _ZNSt8_Rb_treeI11proto_dportSt4pairIKS0_7payloadESt10_Select1stIS4_ESt4lessIS0_ESaIS4_EE8_M_eraseEPSt13_Rb_tree_nodeIS4_E
0000000000082210 w _ZNSt3mapI11proto_dport7payloadSt4lessIS0_ESaISt4pairIKS0_S1_EEED1Ev
0000000000082230 w _ZNSt8_Rb_treeI11proto_dportSt4pairIKS0_7payloadESt10_Select1stIS4_ESt4lessIS0_ESaIS4_EE24_M_get_insert_unique_posERS2_
00000000000822f0 w _ZNSt8_Rb_treeI11proto_dportSt4pairIKS0_7payloadESt10_Select1stIS4_ESt4lessIS0_ESaIS4_EE29_M_get_insert_hint_unique_posESt23_Rb_tree_const_iteratorIS4_ERS2_
0000000000082490 t _ZL18cstringSanityCheckPKci
0000000000082510 t _ZNSt7__cxx1112basic_stringIcSt11char_traitsIcESaIcEE12_M_constructIPcEEvT_S7_St20forward_iterator_tag.isra.64
00000000000825f0 T _ZN4Port11freeServiceEb
0000000000082720 T _ZN4Port17freeScriptResultsEv
00000000000827b0 T _ZNK4Port18getNmapServiceNameEPci
00000000000828f0 T _ZN17serviceDeductionsC2Ev
0000000000082970 T _ZNK17serviceDeductions25populateFullVersionStringEPcm
0000000000082b60 T _ZN8PortList19setDefaultPortStateEhi
0000000000082c00 T _ZN8PortList8setIdStrEPKc
0000000000082c80 T _ZNK8PortList14getStateCountsEii
0000000000082cd0 T _ZNK8PortList14getStateCountsEi
0000000000082cf0 T _ZNK8PortList7mapPortEPtPh
0000000000082de0 T _ZN8PortList12getPortStateEth
0000000000082ea0 T _ZN8PortList13portIsDefaultEth
0000000000082f10 T _ZNK8PortList10lookupPortEth
0000000000082f50 T _ZN8PortList11freePortMapEv
0000000000082fc0 T _ZN8PortList17initializePortMapEiPti
00000000000830f0 T _ZN8PortList14isIgnoredStateEi
00000000000831d0 T _ZN8PortList16nextIgnoredStateEi
00000000000832e0 T _ZN8PortList16numIgnoredStatesEv
0000000000083330 T _ZN8PortList15numIgnoredPortsEv
0000000000083390 T _ZNK8PortList8numPortsEv
00000000000833c0 T _ZNK8PortList12hasOpenPortsEv
0000000000083410 T _ZNK8PortList12isTCPwrappedEt
0000000000083560 T _Z17random_port_cheatPti
0000000000083710 T _Z12statenum2stri
0000000000083730 T _ZNK8PortList20getServiceDeductionsEtiP17serviceDeductions
00000000000839b0 T _ZN4PortC1Ev
0000000000083a10 T _ZN8PortList10createPortEth
0000000000083b10 T _ZN8PortList14setStateReasonEththPK16sockaddr_storage
0000000000083b80 T _ZN8PortList12setPortStateEthi
0000000000083ed0 T _ZN8PortList15addScriptResultEtiR12ScriptResult
0000000000083fb0 T _ZN8PortListC2Ev
0000000000084190 T _ZN8PortList10forgetPortEth
0000000000084290 T _ZN8PortListD1Ev
00000000000843d0 T _ZN8PortList8nextPortEPK4PortPS0_ii
0000000000084720 T _ZN8PortList22setServiceProbeResultsEti17serviceprobestatePKc19service_tunnel_typeS2_S2_S2_S2_S2_S2_PKSt6vectorIS2_SaIS2_EES2_
0000000000084ab0 w _ZNSt6vectorIPcSaIS0_EEaSERKS2_
0000000000084c20 w _ZNSt7__cxx114listI12ScriptResultSaIS1_EEaSERKS3_
0000000000084e30 w _ZNSt6vectorIPcSaIS0_EE13_M_insert_auxEN9__gnu_cxx17__normal_iteratorIPS0_S2_EERKS0_
0000000000084fe0 T _ZN11port_reason11set_ip_addrEPK16sockaddr_storage
0000000000085040 T _ZN13reason_stringC1Ev
0000000000085060 T _ZN13reason_stringC1EPKcS1_
0000000000085080 T _Z14icmp_to_reasonhii
0000000000085150 T _Z10reason_strtj
0000000000085200 T _Z17state_reason_initP11port_reason
0000000000085220 T _Z17target_reason_strP6Target
00000000000852f0 T _Z15port_reason_str11port_reason
00000000000854f0 t _ZL28print_state_summary_internalP8PortListi
0000000000085740 T _Z19print_state_summaryP8PortListt
0000000000085940 T _Z23print_xml_state_summaryP8PortListi
0000000000085a90 t _ZNSt8_Rb_treeI12reason_codesSt4pairIKS0_13reason_stringESt10_Select1stIS4_ESt4lessIS0_ESaIS4_EE17_M_insert_unique_INSA_11_Alloc_nodeEEESt17_Rb_tree_iteratorIS4_ESt23_Rb_tree_const_iteratorIS4_ERKS4_RT_.isra.35.constprop.37
0000000000085b40 T _ZN15reason_map_typeC2Ev
0000000000087010 w _ZNSt8_Rb_treeI12reason_codesSt4pairIKS0_13reason_stringESt10_Select1stIS4_ESt4lessIS0_ESaIS4_EE8_M_eraseEPSt13_Rb_tree_nodeIS4_E
0000000000087060 w _ZN15reason_map_typeD2Ev
0000000000087080 w _ZNSt8_Rb_treeI12reason_codesSt4pairIKS0_13reason_stringESt10_Select1stIS4_ESt4lessIS0_ESaIS4_EE24_M_get_insert_unique_posERS2_
0000000000087100 w _ZNSt8_Rb_treeI12reason_codesSt4pairIKS0_13reason_stringESt10_Select1stIS4_ESt4lessIS0_ESaIS4_EE29_M_get_insert_hint_unique_posESt23_Rb_tree_const_iteratorIS4_ERS2_
0000000000087200 t _ZNSt7__cxx1112basic_stringIcSt11char_traitsIcESaIcEE12_M_constructIPcEEvT_S7_St20forward_iterator_tag.isra.32
00000000000872e0 t _ZL19nmap_protocols_initv
00000000000879e0 T _Z24addprotocolsfromservmaskPcPh
0000000000087a90 T _Z17nmap_getprotbynumi
0000000000087b00 t _ZL15pingprobe_scorePK9probespeci
0000000000087bc0 t _ZL25ultrascan_adjust_timeoutsP13UltraScanInfoP13HostScanStatsP10UltraProbeP7timeval.isra.4
0000000000087c40 t _ZN10UltraProbeD2Ev.part.21
0000000000087c80 t _ZN13HostScanStats12dismissBenchEv.part.53
0000000000087ce0 t _ZL15probespec2asciiPK9probespecPcj.constprop.156
0000000000087fc0 t _ZL13sendPingProbeP13UltraScanInfoP13HostScanStats.constprop.150
0000000000088150 T _ZNK12HssPredicateclEPK13HostScanStatsS2_
00000000000881a0 T _ZN13UltraScanInfo17log_overall_ratesEi
0000000000088220 T _ZN13UltraScanInfo17log_current_ratesEib
00000000000882b0 T _ZN27ultra_scan_performance_vars4initEv
00000000000882f0 T _Z15pspectype2asciii
00000000000883d0 T _ZN10UltraProbeC1Ev
0000000000088420 T _ZN10UltraProbeD1Ev
0000000000088440 T _ZN14GroupScanStatsD1Ev
0000000000088480 T _ZN14GroupScanStats9probeSentEj
0000000000088630 T _ZN13HostScanStatsC1EP6TargetP13UltraScanInfo
00000000000889c0 T _ZN13HostScanStats9probeSentEj
00000000000889f0 T _ZN13HostScanStats12probeTimeoutEv
0000000000088a30 T _ZN13HostScanStats15probeExpireTimeEPK10UltraProbe
0000000000088ad0 T _ZN13HostScanStats11nextTimeoutEP7timeval
0000000000088ca0 T _ZN13UltraScanInfo9isRawScanEv
0000000000088d00 T _ZN13UltraScanInfo18nextIncompleteHostEv
0000000000088d70 T _ZN13UltraScanInfo16numProbesPerHostEv
0000000000088ec0 T _ZN14GroupScanStatsC1EP13UltraScanInfo
0000000000089110 T _ZN13UltraScanInfo26numIncompleteHostsLessThanEj
0000000000089170 T _ZN14GroupScanStats6sendOKEP7timeval
00000000000894c0 T _Z22determineScanGroupSizeiP10scan_lists
00000000000895c0 T _ZN13HostScanStats14freshPortsLeftEv
0000000000089780 T _ZN13HostScanStats12allowedTrynoEPbS0_
0000000000089890 T _ZN13UltraScanInfo21getCompletionFractionEv
0000000000089990 T _ZN13HostScanStats23destroyOutstandingProbeESt14_List_iteratorIP10UltraProbeE
0000000000089b00 T _ZN13HostScanStatsD1Ev
0000000000089be0 T _ZN13HostScanStats27destroyAllOutstandingProbesEv
0000000000089c20 T _ZN13HostScanStats9completedEv
0000000000089c80 T _ZN13HostScanStats9getTimingEP17ultra_timing_vals
0000000000089d70 T _ZN13HostScanStats6sendOKEP7timeval
000000000008a2e0 T _ZN13UltraScanInfo6sendOKEP7timeval
000000000008a580 T _ZN13HostScanStats14boostScanDelayEv
000000000008a660 t _ZL23ultrascan_adjust_timingP13UltraScanInfoP13HostScanStatsP10UltraProbeP7timeval
000000000008aa20 T _ZN13HostScanStats17markProbeTimedoutESt14_List_iteratorIP10UltraProbeE
000000000008ab50 T _ZN13HostScanStats12dismissBenchEv
000000000008ab80 T _Z21ultrascan_ping_updateP13UltraScanInfoP13HostScanStatsSt14_List_iteratorIP10UltraProbeEP7timevalb
000000000008abf0 T _Z27ultrascan_host_probe_updateP13UltraScanInfoP13HostScanStatsSt14_List_iteratorIP10UltraProbeEiP7timevalb
000000000008ae90 T _Z27ultrascan_port_probe_updateP13UltraScanInfoP13HostScanStatsSt14_List_iteratorIP10UltraProbeEiP7timevalb
000000000008b440 T _ZN13UltraScanInfoC1Ev
000000000008b500 T _ZN13UltraScanInfoD1Ev
000000000008b700 T _ZN13UltraScanInfo4InitERSt6vectorIP6TargetSaIS2_EEP10scan_lists5stype
000000000008bc50 T _ZN13UltraScanInfo20removeCompletedHostsEv
000000000008c250 T _ZN13UltraScanInfo8findHostEP16sockaddr_storage
000000000008c340 T _ZN13HostScanStats16moveProbeToBenchESt14_List_iteratorIP10UltraProbeE
000000000008c490 T _ZN13HostScanStats15retransmitBenchEv
000000000008c580 t _ZNSt8_Rb_treeIP13HostScanStatsSt4pairIKS1_St14_List_iteratorIP10UltraProbeEESt10_Select1stIS8_ESt4lessIS1_ESaIS8_EE17_M_insert_unique_INSE_11_Alloc_nodeEEESt17_Rb_tree_iteratorIS8_ESt23_Rb_tree_const_iteratorIS8_ERKS8_RT_.isra.141.constprop.146
000000000008c630 T _Z10ultra_scanRSt6vectorIP6TargetSaIS1_EEP10scan_lists5stypeP12timeout_info
000000000008e510 w _ZNSt8_Rb_treeIP13HostScanStatsS1_St9_IdentityIS1_E12HssPredicateSaIS1_EE8_M_eraseEPSt13_Rb_tree_nodeIS1_E
000000000008e560 w _ZNSt8_Rb_treeIP13HostScanStatsS1_St9_IdentityIS1_E12HssPredicateSaIS1_EE15_M_insert_equalERKS1_
000000000008e630 w _ZNSt8_Rb_treeIP13HostScanStatsS1_St9_IdentityIS1_E12HssPredicateSaIS1_EE4findERKS1_
000000000008e6d0 w _ZNSt6vectorIhSaIhEE14_M_fill_insertEN9__gnu_cxx17__normal_iteratorIPhS1_EEmRKh
000000000008e920 w _ZNSt6vectorI9probespecSaIS0_EE13_M_insert_auxEN9__gnu_cxx17__normal_iteratorIPS0_S2_EERKS0_
000000000008eb30 w _ZNSt8_Rb_treeIP13HostScanStatsSt4pairIKS1_St14_List_iteratorIP10UltraProbeEESt10_Select1stIS8_ESt4lessIS1_ESaIS8_EE8_M_eraseEPSt13_Rb_tree_nodeIS8_E
000000000008eb80 w _ZNSt6vectorI9probespecSaIS0_EE15_M_range_insertIN9__gnu_cxx17__normal_iteratorIPS0_S2_EEEEvS7_T_S8_St20forward_iterator_tag
000000000008ef30 w _ZNSt8_Rb_treeIP13HostScanStatsSt4pairIKS1_St14_List_iteratorIP10UltraProbeEESt10_Select1stIS8_ESt4lessIS1_ESaIS8_EE24_M_get_insert_unique_posERS3_
000000000008efb0 w _ZNSt8_Rb_treeIP13HostScanStatsSt4pairIKS1_St14_List_iteratorIP10UltraProbeEESt10_Select1stIS8_ESt4lessIS1_ESaIS8_EE29_M_get_insert_hint_unique_posESt23_Rb_tree_const_iteratorIS8_ERS3_
000000000008f0b0 t _ZL19handleConnectResultP13UltraScanInfoP13HostScanStatsSt14_List_iteratorIP10UltraProbeEib
000000000008f570 T _ZN10UltraProbe10setConnectEt
000000000008f5c0 T _ZN15ConnectScanInfoC1Ev
000000000008f660 T _ZN15ConnectScanInfoD1Ev
000000000008f670 T _ZN15ConnectScanInfo7watchSDEi
000000000008f740 T _ZN15ConnectScanInfo7clearSDEi
000000000008f840 T _ZN12ConnectProbeC2Ev
000000000008f860 T _ZN12ConnectProbeD2Ev
000000000008f880 T _Z20sendConnectScanProbeP13UltraScanInfoP13HostScanStatsthh
000000000008fca0 T _Z19do_one_select_roundP13UltraScanInfoP7timeval
00000000000902e0 t _ZL22build_protoscan_packetPK16sockaddr_storageS1_htPj
0000000000090830 t _ZL15tcp_probe_matchPK13UltraScanInfoPK10UltraProbePK13HostScanStatsPK7tcp_hdrPK16sockaddr_storageSD_j.isra.16.part.17
0000000000090ae0 T _ZN10UltraProbe6setARPEPhj
0000000000090b00 T _ZN10UltraProbe5setNDEPhj
0000000000090b20 T _ZN10UltraProbe5setIPEPhjPK9probespec
0000000000090dd0 T _ZNK10UltraProbe6icmpidEv
0000000000090df0 T _ZNK10UltraProbe6tcpseqEv
0000000000090e10 T _ZNK10UltraProbe8sctpvtagEv
0000000000090e30 T _Z19increment_base_portv
0000000000090ee0 T _Z20get_ping_pcap_resultP13UltraScanInfoP7timeval
0000000000092730 T _Z13begin_snifferP13UltraScanInfoRSt6vectorIP6TargetSaIS3_EE
0000000000093270 T _Z16sendArpScanProbeP13UltraScanInfoP13HostScanStatshh
0000000000093480 T _Z15sendNDScanProbeP13UltraScanInfoP13HostScanStatshh
0000000000093780 T _Z15sendIPScanProbeP13UltraScanInfoP13HostScanStatsPK9probespechh
0000000000094b80 T _Z14get_arp_resultP13UltraScanInfoP7timeval
0000000000094de0 T _Z13get_ns_resultP13UltraScanInfoP7timeval
0000000000095030 T _Z15get_pcap_resultP13UltraScanInfoP7timeval
0000000000096eb0 t _ZL10getpts_auxPKciPhiPib
00000000000975c0 t _ZL15remaining_portsPtiS_iPKc.part.0
0000000000097720 T _Z6getptsPKcP10scan_lists
00000000000979e0 T _Z13getpts_simplePKciPPtPi
0000000000097b00 T _Z15free_scan_listsP10scan_lists
0000000000097ba0 T _Z9removeptsPKcP10scan_lists
0000000000097dd0 T _Z12scantype2str5stype
0000000000097fa0 t _ZL13next_templatePPKcPPcS3_S3_i
0000000000098100 t _ZL13strbuf_appendPPcPmS1_PKcm
0000000000098180 t _ZL13transform_cpePKc
0000000000098310 t _ZL8substvarPcPS_PKhiPii
0000000000098bc0 t _ZL11dotmplsubstPKhiPiiPcS2_iPFS2_PKcE
0000000000098e60 t _ZL26adjustPortStateIfNecessaryP10ServiceNFO
0000000000098fe0 t _ZN12ServiceProbe16getProbeProtocolEv.isra.16.part.17
0000000000099010 t _ZL12end_svcprobeP5npool17serviceprobestateP12ServiceGroupP10ServiceNFOP4niod.isra.149
0000000000099380 t _ZNSt7__cxx1112basic_stringIcSt11char_traitsIcESaIcEE12_M_constructIPcEEvT_S7_St20forward_iterator_tag.isra.154
0000000000099460 T _ZN17ServiceProbeMatchC2Ev
00000000000994f0 T _ZN17ServiceProbeMatchD1Ev
0000000000099620 T _ZN17ServiceProbeMatch13getVersionStrEPKhiPiiPciS3_iS3_iS3_iS3_iS3_iS3_iS3_iS3_i
0000000000099b80 T _ZN17ServiceProbeMatch9testMatchEPKhi
0000000000099e20 T _ZN12ServiceProbeC2Ev
0000000000099f10 T _ZN12ServiceProbeD1Ev
000000000009a050 T _ZN12ServiceProbe14setProbeStringEPKhi
000000000009a0f0 T _ZN12ServiceProbe15setProbeDetailsEPci
000000000009a2b0 T _ZN12ServiceProbe14portIsProbableE19service_tunnel_typet
000000000009a3d0 T _ZN12ServiceProbe17serviceIsPossibleEPKc
000000000009a440 T _ZN12ServiceProbe9setRarityEPKci
000000000009a490 T _ZN12ServiceProbe9testMatchEPKhii
000000000009a510 T _ZN9AllProbesC1Ev
000000000009a570 T _ZN9AllProbesD2Ev
000000000009a620 T _ZN9AllProbes17service_scan_freeEv
000000000009a660 T _ZN9AllProbes14getProbeByNameEPKci
000000000009a7a0 T _ZN9AllProbes10isExcludedEti
000000000009a840 T _ZN9AllProbes19check_excluded_portEti
000000000009a910 T _ZN9AllProbes16compileFallbacksEv
000000000009aaf0 T _ZN10ServiceNFOC2EP9AllProbes
000000000009abf0 T _ZN10ServiceNFOD2Ev
000000000009ac70 T _ZN10ServiceNFO14addServiceCharEci
000000000009acf0 T _ZN10ServiceNFO16addServiceStringEPKci
000000000009ad40 T _ZN10ServiceNFO23addToServiceFingerprintEPKcPKhi
000000000009b390 T _ZN10ServiceNFO21getServiceFingerprintEPi
000000000009b450 T _ZN10ServiceNFO9nextProbeEb
000000000009b790 T _ZN10ServiceNFO12currentProbeEv
000000000009b800 t _ZL23launchSomeServiceProbesP5npoolP12ServiceGroup
000000000009bb50 t _ZL25servicescan_write_handlerP5npoolP6neventPv
000000000009bd80 T _ZN10ServiceNFO11resetProbesEb
000000000009be00 T _ZN10ServiceNFO16probe_timemsusedEPK12ServiceProbePK7timeval
000000000009bed0 T _ZN10ServiceNFO16probe_timemsleftEPK12ServiceProbePK7timeval
000000000009bf40 t _ZL15send_probe_textP5npoolP4niodP10ServiceNFOP12ServiceProbe
000000000009c060 t _ZL27servicescan_connect_handlerP5npoolP6neventPv
000000000009c280 t _ZL14startNextProbeP5npoolP4niodP12ServiceGroupP10ServiceNFOb
000000000009c600 T _ZN10ServiceNFO28appendtocurrentproberesponseEPKhi
000000000009c670 t _ZL24servicescan_read_handlerP5npoolP6neventPv
000000000009ce90 T _ZN10ServiceNFO23getcurrentproberesponseEPi
000000000009ceb0 T _ZN12ServiceGroupD2Ev
000000000009d060 T _ZN17ServiceProbeMatch9InitMatchEPKci
000000000009d540 T _ZN12ServiceProbe13setPortVectorEPSt6vectorItSaItEEPKci
000000000009d740 T _ZN12ServiceProbe16setProbablePortsE19service_tunnel_typePKci
000000000009d790 T _ZN12ServiceProbe8addMatchEPKci
000000000009da50 T _Z29parse_nmap_service_probe_fileP9AllProbesPc
000000000009e0b0 T _ZN12ServiceGroupC2ERSt6vectorIP6TargetSaIS2_EEP9AllProbes
000000000009e480 t _ZL25parse_nmap_service_probesP9AllProbes
000000000009e960 t _ZN9AllProbes17service_scan_initEv.part.181
000000000009e9e0 T _ZN9AllProbes17service_scan_initEv
000000000009ea10 T _Z12service_scanRSt6vectorIP6TargetSaIS1_EE
000000000009f220 w _ZNSt6vectorItSaItEE13_M_insert_auxEN9__gnu_cxx17__normal_iteratorIPtS1_EERKt
000000000009f3b0 w _ZNSt6vectorIP12ServiceProbeSaIS1_EE13_M_insert_auxEN9__gnu_cxx17__normal_iteratorIPS1_S3_EERKS1_
000000000009f560 T _Z26service_node_ratio_compareRK12service_nodeS1_
000000000009f580 t _ZL12port_comparePKvS0_
000000000009f5a0 t _ZL14is_port_memberPK10scan_listsPK12service_node.isra.6
000000000009f6e0 t _ZNSt7__cxx1112basic_stringIcSt11char_traitsIcESaIcEE12_M_constructIPcEEvT_S7_St20forward_iterator_tag.isra.70
000000000009f7c0 t _ZNSt8_Rb_treeI9port_specSt4pairIKS0_12service_nodeESt10_Select1stIS4_ESt4lessIS0_ESaIS4_EE14_M_lower_boundEPSt13_Rb_tree_nodeIS4_ESD_RS2_.isra.54
000000000009f880 T _Z13free_servicesv
000000000009f8a0 t _ZL18nmap_services_initv
00000000000a0680 T _Z20addportsfromservmaskPcPhi
00000000000a07c0 T _Z18nmap_getservbyportiPKc
00000000000a08b0 T _Z9gettopptsdPcP10scan_listsS_
00000000000a10e0 w _ZNSt7__cxx114listI12service_nodeSaIS1_EED2Ev
00000000000a1120 w _ZNSt8_Rb_treeI9port_specSt4pairIKS0_12service_nodeESt10_Select1stIS4_ESt4lessIS0_ESaIS4_EE4findERS2_
00000000000a11d0 w _ZNSt7__cxx114listI12service_nodeSaIS1_EE5mergeIPFbRKS1_S6_EEEvRS3_T_
00000000000a1270 w _ZNSt7__cxx114listI12service_nodeSaIS1_EE4sortIPFbRKS1_S6_EEEvT_
00000000000a1550 w _ZNSt8_Rb_treeI9port_specSt4pairIKS0_12service_nodeESt10_Select1stIS4_ESt4lessIS0_ESaIS4_EE8_M_eraseEPSt13_Rb_tree_nodeIS4_E
00000000000a15b0 w _ZNSt3mapI9port_spec12service_nodeSt4lessIS0_ESaISt4pairIKS0_S1_EEED2Ev
00000000000a15d0 w _ZNSt8_Rb_treeI9port_specSt4pairIKS0_12service_nodeESt10_Select1stIS4_ESt4lessIS0_ESaIS4_EE24_M_get_insert_unique_posERS2_
00000000000a1740 w _ZNSt8_Rb_treeI9port_specSt4pairIKS0_12service_nodeESt10_Select1stIS4_ESt4lessIS0_ESaIS4_EE29_M_get_insert_hint_unique_posESt23_Rb_tree_const_iteratorIS4_ERS2_
00000000000a1ab0 t _ZNSt7__cxx1112basic_stringIcSt11char_traitsIcESaIcEE12_M_constructIPcEEvT_S7_St20forward_iterator_tag.isra.48
00000000000a1b90 T _ZN10NewTargets10get_numberEv
00000000000a1bb0 T _ZN10NewTargets11get_scannedEv
00000000000a1c00 T _ZN10NewTargets10get_queuedEv
00000000000a1c50 T _ZN10NewTargets5clearEv
00000000000a1ca0 T _ZN10NewTargets4readB5cxx11Ev
00000000000a1d50 T _ZN10NewTargets10InitializeEv
00000000000a1de0 T _ZN10NewTargetsC1Ev
00000000000a21e0 T _ZN10NewTargets3getEv
00000000000a2240 T _ZN10NewTargets4pushEPKc
00000000000a23f0 T _ZN10NewTargets6insertEPKc
00000000000a2470 w _ZNSt11_Deque_baseINSt7__cxx1112basic_stringIcSt11char_traitsIcESaIcEEESaIS5_EED2Ev
00000000000a24e0 w _ZNSt5dequeINSt7__cxx1112basic_stringIcSt11char_traitsIcESaIcEEESaIS5_EED2Ev
00000000000a2600 w _ZNSt8_Rb_treeINSt7__cxx1112basic_stringIcSt11char_traitsIcESaIcEEES5_St9_IdentityIS5_ESt4lessIS5_ESaIS5_EE16_M_insert_uniqueERKS5_
00000000000a28a0 w _ZNSt11_Deque_baseINSt7__cxx1112basic_stringIcSt11char_traitsIcESaIcEEESaIS5_EE17_M_initialize_mapEm
00000000000a29e0 w _ZNSt5dequeINSt7__cxx1112basic_stringIcSt11char_traitsIcESaIcEEESaIS5_EE16_M_pop_front_auxEv
00000000000a2a40 w _ZNSt5dequeINSt7__cxx1112basic_stringIcSt11char_traitsIcESaIcEEESaIS5_EE16_M_push_back_auxERKS5_
00000000000a2c70 t _ZL24apply_ipv4_netmask_octetPmh
00000000000a2d40 T _ZN16NetBlockHostname13apply_netmaskEi
00000000000a2d50 T _ZN19NetBlockIPv6Netmask13apply_netmaskEi
00000000000a2ee0 T _ZN16NetBlockHostname4nextEP16sockaddr_storagePm
00000000000a2f10 t _ZNSt7__cxx1112basic_stringIcSt11char_traitsIcESaIcEE12_M_constructIPcEEvT_S7_St20forward_iterator_tag.isra.40
00000000000a2ff0 T _ZN18NetBlockIPv4Ranges13apply_netmaskEi
00000000000a30d0 T _ZNK8NetBlock19is_resolved_addressEPK16sockaddr_storage
00000000000a3130 T _ZN18NetBlockIPv4RangesC2Ev
00000000000a31e0 T _ZN18NetBlockIPv4Ranges8set_addrEPK11sockaddr_in
00000000000a32f0 T _ZN18NetBlockIPv4Ranges4nextEP16sockaddr_storagePm
00000000000a34e0 T _ZN19NetBlockIPv6Netmask8set_addrEPK12sockaddr_in6
00000000000a3560 T _ZN19NetBlockIPv6Netmask4nextEP16sockaddr_storagePm
00000000000a36e0 T _ZN16NetBlockHostnameC1EPKcib
00000000000a37e0 T _ZN8NetBlock10parse_exprEPKci
00000000000a3d10 T _ZN11TargetGroupD1Ev
00000000000a3d40 T _ZN11TargetGroup10parse_exprEPKci
00000000000a3d90 T _ZN11TargetGroup13get_next_hostEP16sockaddr_storagePm
00000000000a3e20 T _ZNK11TargetGroup19is_resolved_addressEPK16sockaddr_storage
00000000000a3e90 T _ZNK11TargetGroup17get_resolved_nameEv
00000000000a3ec0 T _ZNK11TargetGroup19get_unscanned_addrsB5cxx11Ev
00000000000a3ee0 T _ZNK11TargetGroup13get_namedhostEv
00000000000a3f10 T _ZNK16NetBlockHostname3strB5cxx11Ev
00000000000a4330 T _ZNK19NetBlockIPv6Netmask3strB5cxx11Ev
00000000000a4800 t _ZL25bitvector_to_range_stringPKm
00000000000a4d70 T _ZNK18NetBlockIPv4Ranges3strB5cxx11Ev
00000000000a5330 T _ZN16NetBlockHostname7resolveEv
00000000000a58a0 w _ZN8NetBlock7resolveEv
00000000000a58b0 w _ZN18NetBlockIPv4RangesD2Ev
00000000000a5940 w _ZN16NetBlockHostnameD2Ev
00000000000a59d0 w _ZN19NetBlockIPv6NetmaskD1Ev
00000000000a5a60 w _ZN18NetBlockIPv4RangesD0Ev
00000000000a5af0 w _ZN16NetBlockHostnameD0Ev
00000000000a5b80 w _ZN19NetBlockIPv6NetmaskD0Ev
00000000000a5c10 w _ZNSt7__cxx114listI16sockaddr_storageSaIS1_EEaSERKS3_
00000000000a5ea0 T _ZN6Target10InitializeEv
00000000000a60f0 T _ZNK6Target10deviceNameEv
00000000000a6120 T _ZNK6Target14deviceFullNameEv
00000000000a6150 T _ZN6Target12FreeInternalEv
00000000000a61d0 T _ZN6Target7RecycleEv
00000000000a6200 T _ZN6Target22GenerateTargetIPStringEv
00000000000a6260 T _ZN6Target22GenerateSourceIPStringEv
00000000000a62c0 T _ZNK6Target2afEv
00000000000a62e0 T _ZNK6Target14TargetSockAddrEP16sockaddr_storagePm
00000000000a6390 T _ZNK6Target14TargetSockAddrEv
00000000000a63b0 T _ZN6Target17setTargetSockAddrEPK16sockaddr_storagem
00000000000a6470 T _ZNK6Target6v4hostEv
00000000000a64a0 T _ZNK6Target8v4hostipEv
00000000000a64d0 T _ZNK6Target8v6hostipEv
00000000000a6500 T _ZNK6Target14SourceSockAddrEP16sockaddr_storagePm
00000000000a6590 T _ZNK6Target14SourceSockAddrEv
00000000000a65b0 T _ZN6Target17setSourceSockAddrEPK16sockaddr_storagem
00000000000a6610 T _ZNK6Target6sourceEv
00000000000a66d0 T _ZNK6Target10v4sourceipEv
00000000000a6700 T _ZNK6Target10v6sourceipEv
00000000000a6730 T _ZN6Target11setHostNameEPKc
00000000000a67f0 T _ZN6Target13setTargetNameEPKc
00000000000a6840 T _ZNK6Target6NameIPEPcm
00000000000a68f0 T _ZNK6Target6NameIPEv
00000000000a6940 T _ZN6Target7nextHopEP16sockaddr_storagePm
00000000000a69d0 T _ZN6Target20setDirectlyConnectedEb
00000000000a69f0 T _ZNK6Target24directlyConnectedOrUnsetEv
00000000000a6a10 T _ZNK6Target17directlyConnectedEv
00000000000a6a50 T _ZN6Target10setNextHopEP16sockaddr_storagem
00000000000a6aa0 T _ZN6Target6setMTUEi
00000000000a6ac0 T _ZN6Target3MTUEv
00000000000a6ae0 T _ZN6Target17startTimeOutClockEPK7timeval
00000000000a6b70 T _ZN6Target16stopTimeOutClockEPK7timeval
00000000000a6c50 T _ZN6Target8timedOutEPK7timeval
00000000000a6d20 T _ZN6Target13setMACAddressEPKh
00000000000a6d60 T _ZN6Target16setSrcMACAddressEPKh
00000000000a6da0 T _ZN6Target20setNextHopMACAddressEPKh
00000000000a6de0 T _ZN6Target14setDeviceNamesEPKcS1_
00000000000a6e30 T _ZNK6Target10MACAddressEv
00000000000a6e60 T _ZNK6Target13SrcMACAddressEv
00000000000a6e90 T _ZNK6Target17NextHopMACAddressEv
00000000000a6ec0 T _ZN6Target15osscanPerformedEv
00000000000a6ee0 T _ZN6Target13osscanSetFlagEi
00000000000a6f00 T _ZN6TargetC1Ev
00000000000a6fe0 T _ZN6TargetD1Ev
00000000000a7120 w _ZNSt7__cxx1110_List_baseI13TracerouteHopSaIS1_EE8_M_clearEv
00000000000a7180 t _ZL16log_bogus_targetPKc
00000000000a71f0 t _ZNSt7__cxx1112basic_stringIcSt11char_traitsIcESaIcEE12_M_constructIPKcEEvT_S8_St20forward_iterator_tag.isra.64
00000000000a72d0 T _Z10returnhostP14HostGroupState
00000000000a7310 T _Z17load_exclude_fileP7addrsetP8_IO_FILE
00000000000a73c0 T _Z19load_exclude_stringP7addrsetPKc
00000000000a74e0 T _Z11dumpExcludeP7addrset
00000000000a7530 T _Z26target_needs_new_hostgroupPP6TargetiPKS_
00000000000a7670 T _ZN14HostGroupStateD2Ev
00000000000a7740 T _ZN14HostGroupState5deferEP6Target
00000000000a7790 T _ZN14HostGroupState7undeferEv
00000000000a77e0 T _ZN14HostGroupState15next_expressionEv
00000000000a79c0 T _ZN14HostGroupStateC2EiiiPPKc
00000000000a7ba0 t _ZL7arppingPP6Targeti
00000000000a7e40 t _ZL17refresh_hostbatchP14HostGroupStatePK7addrsetP10scan_listsi
00000000000a8910 T _Z8nexthostP14HostGroupStatePK7addrsetP10scan_listsi
00000000000a8960 w _ZNSt7__cxx114listIP6TargetSaIS2_EEaSERKS4_
00000000000a8ad0 t _ZL9build_udpttPKctPj
00000000000a8b70 t _ZL9build_tcpttjjhhttPKhiPKctPj
00000000000a8d70 t _ZL10build_sctpttjPKciS0_tPj
00000000000a8e60 T _ZN11PacketTrace8traceArpEiPKhjP7timeval
00000000000a9080 t _ZN11PacketTrace7traceNDEiPKhjP7timeval.part.2
00000000000a9320 T _ZN11PacketTrace7traceNDEiPKhjP7timeval
00000000000a9380 T _Z19getFinalPacketStatsPci
00000000000a9450 T _ZN11PacketTrace5traceEiPKhjP7timeval
00000000000a95a0 T _ZN11PacketTrace12traceConnectEhPK8sockaddriiiPK7timeval
00000000000a97f0 T _Z12inet_socktopP16sockaddr_storage
00000000000a9850 T _Z11resolve_allPKci
00000000000a98f0 T _Z14send_ip_packetiPK7eth_nfoPK16sockaddr_storagePKhj
00000000000a9a40 T _Z12build_ip_rawPK7in_addrS1_hithbPKhiPKctPj
00000000000a9c70 T _Z14build_ipv6_rawPK8in6_addrS1_hjhiPKctPj
00000000000a9dc0 T _Z13build_tcp_rawPK7in_addrS1_ithbPKhittjjhhttS3_iPKctPj
00000000000a9ee0 T _Z18build_tcp_raw_ipv6PK8in6_addrS1_hjhttjjhhttPKhiPKctPj
00000000000a9fe0 T _Z12send_tcp_rawiPK7eth_nfoPK7in_addrS4_ibPhittjjhhttS5_iPKct
00000000000aa190 T _Z19send_tcp_raw_decoysiPK7eth_nfoPK7in_addribPhittjjhhttS5_iPKct
00000000000aa2c0 T _Z13build_udp_rawPK7in_addrS1_ithbPhittPKctPj
00000000000aa3c0 T _Z18build_udp_raw_ipv6PK8in6_addrS1_hjhttPKctPj
00000000000aa4b0 T _Z12send_udp_rawiPK7eth_nfoP7in_addrPKS2_itPhittPKct
00000000000aa5a0 T _Z19send_udp_raw_decoysiPK7eth_nfoPK7in_addritPhittPKct
00000000000aa680 T _Z14build_sctp_rawPK7in_addrS1_ithbPhittjPciPKctPj
00000000000aa760 T _Z19build_sctp_raw_ipv6PK8in6_addrS1_hjhttjPciPKctPj
00000000000aa820 T _Z14build_icmp_rawPK7in_addrS1_ithbPhitthhPKctPj
00000000000aaa80 T _Z16build_icmpv6_rawPK8in6_addrS1_hjhtthhPKctPj
00000000000aabc0 T _Z14build_igmp_rawPK7in_addrS1_ithbPhihhPKctPj
00000000000aad50 T _Z13readtcppacketPKhi
00000000000ab110 T _Z13readudppacketPKhi
00000000000ab300 T _Z11readip_pcapP4pcapPjlP7timevalP11link_headerb
00000000000abbc0 T _Z13readipv4_pcapP4pcapPjlP7timevalP11link_headerb
00000000000abc10 T _Z12read_na_pcapP4pcapPhP12sockaddr_in6lP7timevalPb
00000000000abdd0 T _Z23pcap_recv_timeval_validv
00000000000abde0 T _Z16pcap_print_statsiP4pcap
00000000000abe90 T _Z23setTargetMACIfAvailableP6TargetP11link_headerPK16sockaddr_storagei
00000000000abfe0 T _Z13getNextHopMACPKcPKhPK16sockaddr_storageS5_Ph
00000000000ac140 T _Z19setTargetNextHopMACP6Target
00000000000ac2a0 T _Z17getpcapinterfacesv
00000000000ac2b0 T _Z14nmap_route_dstPK16sockaddr_storageP9route_nfo
00000000000ac350 T _Z10max_rcvbufi
00000000000ac410 T _Z16broadcast_socketi
00000000000ac480 T _Z15nmap_raw_socketv
00000000000ac4d0 T _Z8recvtimeiPciiPi
00000000000ac610 T _Z12gettcpopt_tsP7tcp_hdrPjS1_
00000000000ac6e0 t _ZN17ScanProgressMeter12mayBePrintedEPK7timeval.part.8
00000000000ac7b0 t _ZN17ScanProgressMeter14beginOrEndTaskEPK7timevalPKcb.part.9
00000000000ac970 T _Z23initialize_timeout_infoP12timeout_info
00000000000ac9a0 T _Z16adjust_timeouts2PK7timevalS1_P12timeout_info
00000000000acc90 T _Z15adjust_timeouts7timevalP12timeout_info
00000000000accf0 T _Z18enforce_scan_delayP7timeval
00000000000ace50 T _ZN17ultra_timing_vals8cc_scaleEPK21scan_performance_vars
00000000000ace90 T _ZN17ultra_timing_vals3ackEPK21scan_performance_varsd
00000000000acf90 T _ZN17ultra_timing_vals4dropEjPK21scan_performance_varsPK7timeval
00000000000acfe0 T _ZN17ultra_timing_vals10drop_groupEjPK21scan_performance_varsPK7timeval
00000000000ad040 T _ZN21scan_performance_vars4initEv
00000000000ad150 T _ZN9RateMeterC2Ed
00000000000ad1a0 T _ZN9RateMeter5startEPK7timeval
00000000000ad230 T _ZN9RateMeter4stopEPK7timeval
00000000000ad2c0 T _ZN9RateMeter6updateEdPK7timeval
00000000000ad560 T _ZN9RateMeter14getCurrentRateEPK7timevalb
00000000000ad590 T _ZNK9RateMeter8getTotalEv
00000000000ad5a0 T _ZNK9RateMeter11elapsedTimeEPK7timeval
00000000000ad670 T _ZNK9RateMeter14getOverallRateEPK7timeval
00000000000ad6c0 T _ZN9RateMeter5isSetEPK7timeval
00000000000ad6e0 T _ZN15PacketRateMeterC1Ed
00000000000ad780 T _ZN15PacketRateMeter5startEPK7timeval
00000000000ad7b0 T _ZN15PacketRateMeter4stopEPK7timeval
00000000000ad7e0 T _ZN15PacketRateMeter6updateEjPK7timeval
00000000000ad830 T _ZNK15PacketRateMeter20getOverallPacketRateEPK7timeval
00000000000ad880 T _ZN15PacketRateMeter20getCurrentPacketRateEPK7timevalb
00000000000ad8b0 T _ZNK15PacketRateMeter18getOverallByteRateEPK7timeval
00000000000ad900 T _ZN15PacketRateMeter18getCurrentByteRateEPK7timevalb
00000000000ad940 T _ZNK15PacketRateMeter13getNumPacketsEv
00000000000ad980 T _ZNK15PacketRateMeter11getNumBytesEv
00000000000ad9d0 T _ZN17ScanProgressMeterC1EPKc
00000000000ada60 T _ZN17ScanProgressMeterD2Ev
00000000000ada90 T _ZN17ScanProgressMeter12mayBePrintedEPK7timeval
00000000000adac0 T _ZN17ScanProgressMeter10printStatsEdPK7timeval
00000000000ade00 T _ZN17ScanProgressMeter21printStatsIfNecessaryEdPK7timeval
00000000000ae010 T _ZN17ScanProgressMeter14beginOrEndTaskEPK7timevalPKcb
00000000000ae040 t _ZL10merge_hopsPK16sockaddr_storageP3HopS3_
00000000000ae410 t _ZL24parse_encapsulated_replyPKvjP5Reply
00000000000ae600 t _ZL7get_nowP7timeval.part.7
00000000000ae650 t _ZNK9HostState15has_more_probesEv.part.17
00000000000ae690 t _ZN15TracerouteState16next_active_hostEv.part.38
00000000000ae6c0 t _ZNSt7__cxx1112basic_stringIcSt11char_traitsIcESaIcEE12_M_constructIPcEEvT_S7_St20forward_iterator_tag.isra.127
00000000000ae7a0 t _ZNSt8_Rb_treeI8HopIdentSt4pairIKS0_P3HopESt10_Select1stIS5_ESt4lessIS0_ESaIS5_EE14_M_lower_boundEPSt13_Rb_tree_nodeIS5_ESE_RS2_.isra.150
00000000000ae810 T _ZNK9HostState15has_more_probesEv
00000000000ae840 T _ZNK9HostState11is_finishedEv
00000000000ae880 T _ZN9HostState8next_ttlEv
00000000000ae970 T _ZN9HostState7link_toEP3Hop
00000000000aeaa0 T _ZNK9HostState19completion_fractionEv
00000000000aeb30 T _ZN9HostState16child_parent_ttlEhPP3HopS2_
00000000000aeb80 T _ZN9HostState14distance_guessEPK6Target
00000000000aeba0 T _ZN9HostState9get_probeEPK6Target
00000000000aed90 T _ZN5ProbeC2EP9HostState9probespech
00000000000aedf0 T _ZN5ProbeD2Ev
00000000000aee00 T _ZN5ProbeD0Ev
00000000000aee10 T _ZN5Probe4sendEiP10eth_handleP7timeval
00000000000af080 T _ZN5Probe6resendEiP10eth_handleP7timeval
00000000000af0a0 T _ZNK5Probe11is_timedoutEP7timeval
00000000000af110 T _ZNK5Probe10may_resendEv
00000000000af140 T _ZN5Probe4makeEP9HostState9probespech
00000000000af560 T _ZN9HostState15send_next_probeEiP10eth_handle
00000000000af6d0 T _ZN15TracerouteState16next_active_hostEv
00000000000af700 T _ZN15TracerouteState15send_new_probesEv
00000000000af880 T _ZN15TracerouteState21remove_finished_hostsEv
00000000000af900 T _ZN15TracerouteState13transfer_hopsEv
00000000000afe90 T _ZN15TracerouteState12lookup_probeEPK16sockaddr_storaget
00000000000aff70 T _ZNK15TracerouteState19completion_fractionEv
00000000000b0010 T _ZN9HostState12cancel_probeESt14_List_iteratorIP5ProbeE
00000000000b0080 T _ZN9HostState19cancel_probes_belowEh
00000000000b00f0 T _ZN9HostState19cancel_probes_aboveEh
00000000000b0160 T _Z26traceroute_hop_cache_clearv
00000000000b02a0 T _ZN9HostStateD1Ev
00000000000b0440 T _ZN15TracerouteStateD2Ev
00000000000b0510 T _ZN9HostStateC2EP6Target
00000000000b06e0 T _ZN15TracerouteStateC2ERSt6vectorIP6TargetSaIS2_EE
00000000000b0be0 t _ZL16hop_cache_insertP3Hop
00000000000b0ec0 T _ZN9HostState10insert_hopEhPK16sockaddr_storagef
00000000000b14b0 T _ZN15TracerouteState12set_host_hopEP9HostStatehPK16sockaddr_storagef
00000000000b17d0 T _ZN15TracerouteState12read_repliesEl
00000000000b1da0 T _ZN15TracerouteState21set_host_hop_timedoutEP9HostStateh
00000000000b1dd0 T _ZN15TracerouteState13cull_timeoutsEv
00000000000b1f30 t _ZNSt8_Rb_treeI16sockaddr_storageSt4pairIKS0_PKcESt10_Select1stIS5_E19lt_sockaddr_storageSaIS5_EE17_M_insert_unique_INSA_11_Alloc_nodeEEESt17_Rb_tree_iteratorIS5_ESt23_Rb_tree_const_iteratorIS5_ERKS5_RT_.isra.217.constprop.221
00000000000b1fe0 T _ZN15TracerouteState12resolve_hopsEv
00000000000b2860 T _Z10tracerouteRSt6vectorIP6TargetSaIS1_EE
00000000000b31d0 w _ZN11ICMPv6ProbeD2Ev
00000000000b31e0 w _ZN12IPProtoProbeD1Ev
00000000000b31f0 w _ZN9SCTPProbeD1Ev
00000000000b3200 w _ZN8UDPProbeD2Ev
00000000000b3210 w _ZN8TCPProbeD1Ev
00000000000b3220 w _ZN9ICMPProbeD2Ev
00000000000b3230 w _ZN11ICMPv6ProbeD0Ev
00000000000b3240 w _ZN12IPProtoProbeD0Ev
00000000000b3250 w _ZN9SCTPProbeD0Ev
00000000000b3260 w _ZN8UDPProbeD0Ev
00000000000b3270 w _ZN8TCPProbeD0Ev
00000000000b3280 w _ZN9ICMPProbeD0Ev
00000000000b3290 w _ZNK11ICMPv6Probe12build_packetEPK16sockaddr_storagePj
00000000000b3360 w _ZNK9SCTPProbe12build_packetEPK16sockaddr_storagePj
00000000000b3530 w _ZNK8UDPProbe12build_packetEPK16sockaddr_storagePj
00000000000b36b0 w _ZNK8TCPProbe12build_packetEPK16sockaddr_storagePj
00000000000b38d0 w _ZNK9ICMPProbe12build_packetEPK16sockaddr_storagePj
00000000000b39a0 w _ZNK12IPProtoProbe12build_packetEPK16sockaddr_storagePj
00000000000b3ad0 w _ZNSt7__cxx114listIP5ProbeSaIS2_EE6removeERKS2_
00000000000b3b90 w _ZNSt8_Rb_treeI16sockaddr_storageS0_St9_IdentityIS0_E19lt_sockaddr_storageSaIS0_EE8_M_eraseEPSt13_Rb_tree_nodeIS0_E
00000000000b3be0 w _ZNSt8_Rb_treeI16sockaddr_storageSt4pairIKS0_PKcESt10_Select1stIS5_E19lt_sockaddr_storageSaIS5_EE8_M_eraseEPSt13_Rb_tree_nodeIS5_E
00000000000b3c30 w _ZNSt8_Rb_treeI8HopIdentSt4pairIKS0_P3HopESt10_Select1stIS5_ESt4lessIS0_ESaIS5_EE8_M_eraseEPSt13_Rb_tree_nodeIS5_E
00000000000b3c80 w _ZNSt3mapI8HopIdentP3HopSt4lessIS0_ESaISt4pairIKS0_S2_EEED1Ev
00000000000b3ca0 w _ZNSt13_Bvector_baseISaIbEE13_M_deallocateEv
00000000000b3cd0 w _ZNSt8_Rb_treeI8HopIdentSt4pairIKS0_P3HopESt10_Select1stIS5_ESt4lessIS0_ESaIS5_EE24_M_get_insert_unique_posERS2_
00000000000b3db0 w _ZNSt8_Rb_treeI8HopIdentSt4pairIKS0_P3HopESt10_Select1stIS5_ESt4lessIS0_ESaIS5_EE29_M_get_insert_hint_unique_posESt23_Rb_tree_const_iteratorIS5_ERS2_
00000000000b3f80 w _ZNSt8_Rb_treeI16sockaddr_storageSt4pairIKS0_PKcESt10_Select1stIS5_E19lt_sockaddr_storageSaIS5_EE24_M_get_insert_unique_posERS2_
00000000000b4020 w _ZNSt8_Rb_treeI16sockaddr_storageSt4pairIKS0_PKcESt10_Select1stIS5_E19lt_sockaddr_storageSaIS5_EE29_M_get_insert_hint_unique_posESt23_Rb_tree_const_iteratorIS5_ERS2_
00000000000b4180 T _Z8wildtestPcS_
00000000000b42a0 T _Z12nmap_hexdumpPhj
00000000000b42f0 T _Z5chompPc
00000000000b4350 T _Z8shortfryPti
00000000000b43c0 T _Z6genfryPhii
00000000000b4570 T _Z4SendiPKvmi
00000000000b4610 T _Z14arg_parse_freePPc
00000000000b4670 T _Z9arg_parsePKcPPPc
00000000000b48b0 T _Z16cstring_unescapePcPj
00000000000b4a90 T _Z11bintohexstrPciS_i
00000000000b4bb0 T _Z16parse_hex_stringPcPm
00000000000b4db0 T _Z12cpe_get_partPKc
00000000000b4e00 T _Z8mmapfilePcPii
00000000000b4f10 t _ZL6escapePKc
00000000000b5190 T _Z12xml_unescapePKc
00000000000b5490 T _Z13xml_write_rawPKcz
00000000000b5590 T _Z19xml_write_escaped_vPKcP13__va_list_tag
00000000000b5620 T _Z17xml_write_escapedPKcz
00000000000b56e0 T _Z17xml_start_commentv
00000000000b5700 T _Z15xml_end_commentv
00000000000b5720 T _Z11xml_open_piPKc
00000000000b5770 T _Z12xml_close_piv
00000000000b57c0 T _Z18xml_open_start_tagPKcb
00000000000b5850 T _Z19xml_close_start_tagb
00000000000b58a0 T _Z19xml_close_empty_tagv
00000000000b5940 T _Z13xml_start_tagPKcb
00000000000b5980 T _Z11xml_end_tagv
00000000000b5a20 T _Z13xml_attributePKcS0_z
00000000000b5b70 T _Z18xml_start_documentPKc
00000000000b5c00 T _Z11xml_newlinev
00000000000b5c20 T _Z9xml_depthv
00000000000b5c40 T _Z12xml_tag_openv
00000000000b5c60 T _Z16xml_root_writtenv
00000000000b5c80 w _ZN10xml_writerD1Ev
00000000000b5cc0 t _ZL13l_xml_end_tagP9lua_State
00000000000b5ce0 t _ZL5panicP9lua_State
00000000000b5d10 t _ZL9init_mainP9lua_State
00000000000b6010 t _ZL13l_xml_newlineP9lua_State
00000000000b6030 t _ZL19l_xml_write_escapedP9lua_State
00000000000b6060 t _ZL15l_xml_start_tagP9lua_State
00000000000b6140 t _ZL9next_portP9lua_State
00000000000b61a0 t _ZL11l_log_writeP9lua_State
00000000000b6200 t _ZL16stopTimeOutClockP9lua_State
00000000000b6230 t _ZL17startTimeOutClockP9lua_State
00000000000b6260 t _ZL8timedOutP9lua_State
00000000000b62a0 t _ZL19scan_progress_meterP9lua_State
00000000000b6320 t _ZL3scpP9lua_State
00000000000b6440 t _ZL15key_was_pressedP9lua_State
00000000000b6470 t _ZL22nse_fetchfile_absolutePcmPKc
00000000000b64f0 t _ZL9nse_fetchP9lua_StatePFiPcmPKcE
00000000000b6600 t _ZL11fetchscriptP9lua_State
00000000000b6620 t _ZL18fetchfile_absoluteP9lua_State
00000000000b6640 t _ZL8run_mainP9lua_State
00000000000b6860 t _ZNSt7__cxx1112basic_stringIcSt11char_traitsIcESaIcEE12_M_constructIPcEEvT_S7_St20forward_iterator_tag.isra.39
00000000000b6940 t _ZL13l_protect_xmlP9lua_State
00000000000b6aa0 t _ZL15nse_fetchscriptPcmPKc
00000000000b6ca0 T _ZN12ScriptResult5clearEv
00000000000b6d00 T _ZN12ScriptResult14set_output_tabEP9lua_Statei
00000000000b6d80 T _ZN12ScriptResult14set_output_strEPKc
00000000000b6e40 T _ZN12ScriptResult14set_output_strEPKcm
00000000000b6ee0 T _ZNK12ScriptResult14get_output_strB5cxx11Ev
00000000000b71f0 T _ZN12ScriptResult6set_idEPKc
00000000000b72b0 t _ZL15host_set_outputP9lua_State
00000000000b74a0 t _ZL17script_set_outputP9lua_State
00000000000b7670 T _ZNK12ScriptResult6get_idEv
00000000000b7680 T _Z27get_script_scan_results_objB5cxx11v
00000000000b7690 T _ZNK12ScriptResult9write_xmlEv
00000000000b7980 T _Z9nse_yieldP9lua_StatelPFiS0_ilE
00000000000b79f0 T _Z11nse_restoreP9lua_Statei
00000000000b7aa0 T _Z14nse_destructorP9lua_Statec
00000000000b7bc0 T _Z8nse_baseP9lua_State
00000000000b7c00 T _Z18nse_selectedbynameP9lua_State
00000000000b7c80 T _Z13nse_gettargetP9lua_Statei
00000000000b7cf0 T _Z8open_nsev
00000000000b7e70 T _Z11script_scanRSt6vectorIP6TargetSaIS1_EE5stype
00000000000b7f50 T _Z9close_nsev
00000000000b7f80 t _ZL5portsP9lua_State
00000000000b80d0 t _ZL15port_set_outputP9lua_State
00000000000b8290 w _ZNSt7__cxx114listI12ScriptResultSaIS1_EED2Ev
00000000000b82a0 T _Z17nseU_checkintegerP9lua_Statei
00000000000b8310 T _Z14nseU_tracebackP9lua_State
00000000000b8360 T _Z16nseU_placeholderP9lua_State
00000000000b8390 T _Z11nseU_tablenP9lua_Statei
00000000000b83f0 T _Z14nseU_setsfieldP9lua_StateiPKcS2_
00000000000b8440 T _Z14nseU_setnfieldP9lua_StateiPKcd
00000000000b8490 T _Z14nseU_setifieldP9lua_StateiPKcx
00000000000b84e0 T _Z14nseU_setbfieldP9lua_StateiPKci
00000000000b8530 T _Z15nseU_appendfstrP9lua_StateiPKcz
00000000000b8630 T _Z12nseU_successP9lua_State
00000000000b8650 T _Z14nseU_safeerrorP9lua_StatePKcz
00000000000b8730 T _Z14nseU_weaktableP9lua_StateiiPKc
00000000000b8790 T _Z14nseU_typeerrorP9lua_StateiPKc
00000000000b87f0 T _Z15nseU_checkudataP9lua_StateiiPKc
00000000000b8880 T _Z16nseU_checktargetP9lua_StateiPPKcS3_
00000000000b8970 T _Z14nseU_opttargetP9lua_StateiPPKcS3_
00000000000b89d0 T _Z14nseU_checkportP9lua_StateiPPKc
00000000000b8ad0 T _Z14nseU_gettargetP9lua_Statei
00000000000b8c30 T _Z12nseU_getportP9lua_StateP6TargetP4Porti
00000000000b8e00 t _ZL7pcap_gcP9lua_State
00000000000b8e40 t _ZL11l_get_statsP9lua_State
00000000000b8ea0 t _ZL8get_poolP9lua_State
00000000000b8f00 t _ZL7l_sleepP9lua_State
00000000000b8ff0 t _ZL14inet_ntop_bothiPKvPc
00000000000b9060 t _ZL7gc_poolP9lua_State
00000000000b90c0 t _ZL14sleep_callbackP5npoolP6neventPv
00000000000b9130 t _ZL6statusP9lua_State10nse_status
00000000000b91e0 t _ZL20pcap_receive_handlerP5npoolP6neventPv
00000000000b9310 t _ZL16sleep_destructorP9lua_State
00000000000b93c0 t _ZL5traceP4niodPKcS2_.part.22
00000000000b9510 t _ZL5traceP4niodPKcS2_
00000000000b95b0 t _ZL8callbackP5npoolP6neventPv
00000000000b9680 t _ZL14close_internalP9lua_StateP15nse_nsock_udata.isra.23
00000000000b96e0 t _ZL6l_loopP9lua_State
00000000000b9950 t _ZNSt7__cxx1112basic_stringIcSt11char_traitsIcESaIcEE12_M_constructIPcEEvT_S7_St20forward_iterator_tag.isra.38
00000000000b9a30 t _ZL5l_newP9lua_State
00000000000b9bb0 t _ZL17check_nsock_udataP9lua_Stateib.constprop.41
00000000000b9d10 t _ZL6l_bindP9lua_State
00000000000b9f20 t _ZL11l_pcap_openP9lua_State
00000000000ba1d0 t _ZL10l_get_infoP9lua_State
00000000000ba350 t _ZL13l_set_timeoutP9lua_State
00000000000ba3b0 t _ZL5yieldP9lua_StateP15nse_nsock_udataPKcS4_iPFiS0_ilE.constprop.42
00000000000ba430 t _ZL14l_pcap_receiveP9lua_State
00000000000ba4d0 t _ZL11receive_bufP9lua_Stateil
00000000000ba880 t _ZL13l_receive_bufP9lua_State
00000000000ba8a0 t _ZL7connectP9lua_Stateil
00000000000bae20 t _ZL9l_connectP9lua_State
00000000000bae40 t _ZL9l_receiveP9lua_State
00000000000baed0 t _ZL15l_reconnect_sslP9lua_State
00000000000baf60 t _ZL15l_receive_linesP9lua_State
00000000000bb000 t _ZL15l_receive_bytesP9lua_State
00000000000bb0a0 t _ZL7l_closeP9lua_State
00000000000bb190 t _ZL8nsock_gcP9lua_State
00000000000bb1d0 t _ZL6hexifyPKhm
00000000000bbad0 t _ZL16receive_callbackP5npoolP6neventPv
00000000000bbc10 t _ZL8l_sendtoP9lua_State
00000000000bbde0 t _ZL6l_sendP9lua_State
00000000000bbf10 T _Z17nse_nsock_get_sslP9lua_State
00000000000bbf60 T _Z13luaopen_nsockP9lua_State
00000000000bc310 t _ZL2gcP9lua_State
00000000000bc3b0 t _ZL10l_dnet_newP9lua_State
00000000000bc410 t _ZL14ethernet_closeP9lua_State
00000000000bc470 t _ZL9close_ethP9lua_State
00000000000bc4d0 t _ZL25l_dnet_get_interface_infoP9lua_State
00000000000bc820 t _ZL8ip_closeP9lua_State
00000000000bc890 t _ZL7ip_openP9lua_State
00000000000bc910 t _ZL13ethernet_sendP9lua_State
00000000000bc9b0 t _ZL15open_eth_cachedP9lua_StateiPKc.constprop.6
00000000000bcad0 t _ZL13ethernet_openP9lua_State
00000000000bcb80 t _ZL7ip_sendP9lua_State
00000000000bcfc0 T _Z12luaopen_dnetP9lua_State
00000000000bd160 t _ZL18get_path_separatorP9lua_State
00000000000bd180 t _ZL16dir_iter_factoryP9lua_State
00000000000bd250 t _ZL8dir_iterP9lua_State
00000000000bd2e0 t _ZL9dir_closeP9lua_State
00000000000bd320 t _ZL8make_dirP9lua_State.part.1
00000000000bd360 t _ZL10remove_dirP9lua_State
00000000000bd3c0 t _ZL8make_dirP9lua_State
00000000000bd420 t _ZL9make_linkP9lua_State
00000000000bd4e0 T _Z11luaopen_lfsP9lua_State
00000000000bd630 t _ZL16l_address_familyP9lua_State
00000000000bd670 t _ZL17set_string_or_nilP9lua_StatePKcS2_
00000000000bd6b0 t _ZL11push_bin_ipP9lua_StatePK16sockaddr_storage
00000000000bd6f0 t _ZL15l_get_interfaceP9lua_State
00000000000bd730 t _ZL9l_new_tryP9lua_State
00000000000bd770 t _ZL9l_condvarP9lua_State
00000000000bd8a0 t _ZL16aux_condvar_doneP9lua_State
00000000000bd930 t _ZL14aux_mutex_doneP9lua_State
00000000000bd9c0 t _ZL11aux_condvarP9lua_State
00000000000bdb40 t _ZL9aux_mutexP9lua_State
00000000000bde90 t _ZL15l_is_privilegedP9lua_State
00000000000bdeb0 t _ZL14l_get_have_sslP9lua_State
00000000000bded0 t _ZL20l_get_payload_lengthP9lua_State
00000000000bdf10 t _ZL9l_get_ttlP9lua_State
00000000000bdf60 t _ZL18l_get_timing_levelP9lua_State
00000000000bdf90 t _ZL15l_get_debuggingP9lua_State
00000000000bdfc0 t _ZL9l_resolveP9lua_State
00000000000be100 t _ZL21l_get_new_targets_numP9lua_State
00000000000be160 t _ZL11l_fetchfileP9lua_State
00000000000be1f0 t _ZL15l_get_verbosityP9lua_State
00000000000be240 t _ZL23l_get_version_intensityP9lua_State
00000000000be3a0 t _ZL16finalize_cleanupP9lua_Stateil
00000000000be3d0 t _ZL11l_log_writeP9lua_State
00000000000be430 t _ZL7l_clockP9lua_State
00000000000be4b0 t _ZL10l_clock_msP9lua_State
00000000000be540 t _ZL18l_port_is_excludedP9lua_State
00000000000be5a0 t _ZL7l_mutexP9lua_State
00000000000be6c0 t _ZL17l_list_interfacesP9lua_State
00000000000bea40 t _ZL13l_add_targetsP9lua_State
00000000000beb50 t _ZL16new_try_finalizeP9lua_State
00000000000bec10 T _Z11set_versionP9lua_StatePK17serviceDeductions
00000000000bedd0 T _Z12set_portinfoP9lua_StatePK6TargetPK4Port
00000000000bef70 T _Z12set_hostinfoP9lua_StateP6Target
00000000000bf590 T _Z12luaopen_nmapP9lua_State
00000000000bf720 t _ZL16l_set_port_stateP9lua_State
00000000000bf850 t _ZL11l_get_portsP9lua_State
00000000000bf990 t _ZL16l_get_port_stateP9lua_State
00000000000bfa60 t _ZL18l_set_port_versionP9lua_State
00000000000bfee0 t _ZL17l_get_dns_serversP9lua_State
00000000000bff90 w _ZNSt7__cxx1110_List_baseINS_12basic_stringIcSt11char_traitsIcESaIcEEESaIS5_EE8_M_clearEv
00000000000bffe0 T _Z10value_dumpP9lua_Stateii
00000000000c0140 t _ZL10table_dumpP9lua_Stateii
00000000000c0230 T _Z10stack_dumpP9lua_State
00000000000c02a0 T _Z14lua_state_dumpP9lua_State
00000000000c03d0 t _ZL10Lpcre_versP9lua_State
00000000000c0400 t _ZL8Lpcre_gcP9lua_State
00000000000c0470 t _ZL13Lpcre_getargsP9lua_StatePP5pcre2PPKcPm
00000000000c04e0 t _ZL21Lpcre_push_substringsP9lua_StatePKcP5pcre2
00000000000c06b0 t _ZL12Lpcre_gmatchP9lua_State
00000000000c0840 t _ZL18Lpcre_push_offsetsP9lua_StatePKcP5pcre2
00000000000c0940 t _ZL10Lpcre_compP9lua_State
00000000000c0bb0 t _ZL15Lpcre_get_flagsP9lua_State
00000000000c0c20 t _ZL14Lpcre_tostringP9lua_State
00000000000c0cf0 t _ZL19Lpcre_match_genericP9lua_StatePFvS0_PKcP5pcre2E
00000000000c0e20 t _ZL11Lpcre_matchP9lua_State
00000000000c0e40 t _ZL10Lpcre_execP9lua_State
00000000000c0e60 T _Z15luaopen_pcrelibP9lua_State
00000000000c0f20 t _ZL10getstrcapsP8CapStateP6StrAuxi
00000000000c1090 t _ZL11updatecacheP8CapStatei
00000000000c1100 t _ZL10lp_versionP9lua_State
00000000000c1120 t _ZL9lp_setmaxP9lua_State
00000000000c1170 t _ZL7newtreeP9lua_Statei
00000000000c11d0 t _ZL10newcharsetP9lua_State
00000000000c1200 t _ZL9createcatP9lua_StatePKcPFiiE
00000000000c1290 t _ZL9lp_localeP9lua_State
00000000000c13d0 t _ZL6lp_setP9lua_State
00000000000c1480 t _ZL8lp_rangeP9lua_State
00000000000c1570 t _ZL9doublecapP9lua_StateP7Captureii
00000000000c1600 t _ZL11doublestackP9lua_StatePP5Stacki
00000000000c1720 t _ZL9ktablelenP9lua_Statei
00000000000c1760 t _ZL11concattableP9lua_Stateii
00000000000c17f0 t _ZL7gettreeP9lua_StateiPi
00000000000c1850 t _ZL11correctkeysP5TTreei.part.2
00000000000c18f0 t _ZL12addonestringP11luaL_BufferP8CapStatePKc
00000000000c19d0 t _ZL9stringcapP11luaL_BufferP8CapState
00000000000c1bb0 t _ZL8substcapP11luaL_BufferP8CapState
00000000000c1c70 t _ZL11pushcaptureP8CapState
00000000000c22f0 t _ZL16pushnestedvaluesP8CapStatei
00000000000c23b0 t _ZL18pushonenestedvalueP8CapState
00000000000c23f0 t _ZL11testpatternP9lua_Statei
00000000000c2470 t _ZL7lp_typeP9lua_State
00000000000c24d0 t _ZL7val2strP9lua_Statei
00000000000c2540 t _ZL8finalfixP9lua_StateiP5TTreeS2_
00000000000c2740 t _ZL11addtoktableP9lua_Statei
00000000000c2800 t _ZL11newemptycapP9lua_Stateii
00000000000c2850 t _ZL13lp_poscaptureP9lua_State
00000000000c2870 t _ZL10lp_backrefP9lua_State
00000000000c28b0 t _ZL15lp_constcaptureP9lua_State
00000000000c29c0 t _ZL4lp_VP9lua_State
00000000000c2a30 t _ZL13lp_argcaptureP9lua_State
00000000000c2a90 t _ZL11joinktablesP9lua_Stateii.constprop.13
00000000000c2be0 t _ZL11charsettypePKhPi.constprop.14
00000000000c2cc0 T _Z10finddyncapP7CaptureS0_
00000000000c2cf0 T _Z10runtimecapP8CapStateP7CapturePKcPi
00000000000c2ea0 T _Z11getcapturesP9lua_StatePKcS2_i
00000000000c2f60 T _Z9tocharsetP5TTreeP7Charset
00000000000c3010 T _Z11hascapturesP5TTree
00000000000c3090 T _Z8checkauxP5TTreei
00000000000c3140 t _ZL8headfailP5TTree
00000000000c31c0 t _ZL8getfirstP5TTreePK7CharsetPS1_
00000000000c3450 t _ZL10verifyruleP9lua_StateP5TTreePiii
00000000000c3600 t _ZL10checkloopsP5TTree
00000000000c3680 t _ZL13verifygrammarP9lua_StateP5TTree
00000000000c37a0 t _ZL7getpattP9lua_StateiPi
00000000000c3ea0 t _ZL4lp_PP9lua_State
00000000000c3ef0 t _ZL11newroot1sibP9lua_Statei
00000000000c3f90 t _ZL11capture_auxP9lua_Stateii
00000000000c3fe0 t _ZL15lp_groupcaptureP9lua_State
00000000000c4030 t _ZL14lp_foldcaptureP9lua_State
00000000000c4070 t _ZL15lp_tablecaptureP9lua_State
00000000000c4090 t _ZL15lp_substcaptureP9lua_State
00000000000c40b0 t _ZL16lp_simplecaptureP9lua_State
00000000000c40d0 t _ZL12lp_matchtimeP9lua_State
00000000000c4120 t _ZL6lp_notP9lua_State
00000000000c4140 t _ZL13lp_divcaptureP9lua_State
00000000000c4240 t _ZL6lp_andP9lua_State
00000000000c4260 t _ZL12lp_printtreeP9lua_State
00000000000c42e0 t _ZL6lp_subP9lua_State
00000000000c4440 t _ZL11newroot2sibP9lua_Statei
00000000000c4520 t _ZL6lp_seqP9lua_State
00000000000c45c0 t _ZL7lp_starP9lua_State
00000000000c47a0 t _ZL9lp_choiceP9lua_State
00000000000c48b0 T _Z9fixedlenxP5TTreeii
00000000000c49c0 t _ZL9lp_behindP9lua_State
00000000000c4a80 T _Z5sizeiPK11Instruction
00000000000c4ad0 T _Z11reallocprogP9lua_StateP7Patterni
00000000000c4b70 t _ZL15nextinstructionP12CompileState
00000000000c4bb0 t _ZL10addcharsetP12CompileStatePKh
00000000000c4c20 t _ZL8codecharP12CompileStateii
00000000000c4ca0 t _ZL13addoffsetinstP12CompileState6Opcode
00000000000c4d10 t _ZL11codetestsetP12CompileStateP7Charseti
00000000000c4e00 t _ZL10addinstcapP12CompileState6Opcodeiii
00000000000c4e60 t _ZL7codegenP12CompileStateP5TTreeiiPK7Charset
00000000000c59f0 t _ZL11codegrammarP12CompileStateP5TTree
00000000000c5bf0 T _Z5lp_gcP9lua_State
00000000000c5c30 T _Z7compileP9lua_StateP7Pattern
00000000000c5e70 t _ZL11prepcompileP9lua_StateP7Patterni.constprop.12
00000000000c5ec0 t _ZL12lp_printcodeP9lua_State
00000000000c5f20 T _Z12luaopen_lpegP9lua_State
00000000000c5fd0 T _Z5matchP9lua_StatePKcS2_S2_P11InstructionP7Capturei
00000000000c67b0 t _ZL8lp_matchP9lua_State
00000000000c6930 t _ZL13l_bignum_freeP9lua_State
00000000000c6960 t _ZL22l_bignum_is_safe_primeP9lua_State
00000000000c6a40 t _ZL17l_bignum_is_primeP9lua_State
00000000000c6ac0 t _ZL18l_bignum_clear_bitP9lua_State
00000000000c6b00 t _ZL16l_bignum_set_bitP9lua_State
00000000000c6b40 t _ZL19l_bignum_is_bit_setP9lua_State
00000000000c6b90 t _ZL15l_bignum_bn2hexP9lua_State
00000000000c6be0 t _ZL15l_bignum_bn2decP9lua_State
00000000000c6c30 t _ZL18l_bignum_num_bytesP9lua_State
00000000000c6c80 t _ZL17l_bignum_num_bitsP9lua_State
00000000000c6cd0 t _ZL5l_rc4P9lua_State
00000000000c6d70 t _ZL13l_rc4_encryptP9lua_State
00000000000c6e10 t _ZL13l_rc4_optionsP9lua_State
00000000000c6e40 t _ZL19l_supported_ciphersP9lua_State
00000000000c6ea0 t _ZL19l_supported_digestsP9lua_State
00000000000c6f00 t _ZL20enumerate_algorithmsPK11obj_name_stPv
00000000000c6f40 t _ZL9l_decryptP9lua_State
00000000000c7210 t _ZL9l_encryptP9lua_State
00000000000c74e0 t _ZL6l_hmacP9lua_State
00000000000c75c0 t _ZL8l_digestP9lua_State
00000000000c7740 t _ZL11l_ripemd160P9lua_State
00000000000c77b0 t _ZL6l_sha1P9lua_State
00000000000c7820 t _ZL5l_md5P9lua_State
00000000000c7890 t _ZL5l_md4P9lua_State
00000000000c7900 t _ZL10nse_pushbnP9lua_StateP9bignum_st
00000000000c7960 t _ZL16l_bignum_mod_expP9lua_State
00000000000c7a00 t _ZL12l_bignum_addP9lua_State
00000000000c7a70 t _ZL20l_bignum_pseudo_randP9lua_State
00000000000c7ad0 t _ZL13l_bignum_randP9lua_State
00000000000c7b30 t _ZL15l_bignum_hex2bnP9lua_State
00000000000c7ba0 t _ZL15l_bignum_dec2bnP9lua_State
00000000000c7c10 t _ZL15l_bignum_bin2bnP9lua_State
00000000000c7c90 t _ZL19l_DES_string_to_keyP9lua_State
00000000000c7d60 t _ZL15l_bignum_bn2binP9lua_State
00000000000c7e00 t _ZL12l_rand_bytesP9lua_State
00000000000c7e90 t _ZL19l_rand_pseudo_bytesP9lua_State
00000000000c7f20 T _Z15luaopen_opensslP9lua_State
00000000000c7fd0 t _ZL18x509_name_to_tableP9lua_StateP12X509_name_st
00000000000c81f0 t _ZL9parse_intPKhm
00000000000c82b0 t _ZL24x509_extensions_to_tableP9lua_StatePK23stack_st_X509_EXTENSION
00000000000c84a0 t _ZL15ssl_cert_digestP9lua_State
00000000000c8560 t _ZL13l_ssl_cert_gcP9lua_State
00000000000c85b0 t _ZL16l_ssl_cert_indexP9lua_State
00000000000c8610 t _ZL16asn1_time_to_objP9lua_StatePK14asn1_string_st
00000000000c8870 T _Z19lua_push_ecdhparamsP9lua_StateP11evp_pkey_st
00000000000c8990 t _ZL14parse_ssl_certP9lua_StateP7x509_st
00000000000c8db0 T _Z23l_parse_ssl_certificateP9lua_State
00000000000c8e40 T _Z21l_get_ssl_certificateP9lua_State
00000000000c8e90 T _Z23nse_nsock_init_ssl_certP9lua_State
00000000000c8f40 t _ZL20publickey_canauth_cbP16_LIBSSH2_SESSIONPPhPmPKhmPPv
00000000000c8f50 t _ZL12channel_execP9lua_Stateil
00000000000c9020 t _ZL14l_channel_execP9lua_State
00000000000c9040 t _ZL13channel_writeP9lua_Stateil
00000000000c9160 t _ZL15l_channel_writeP9lua_State
00000000000c9180 t _ZL21l_channel_read_stderrP9lua_State
00000000000c9280 t _ZL12channel_readP9lua_Stateil
00000000000c9380 t _ZL14l_channel_readP9lua_State
00000000000c93a0 t _ZL13session_closeP9lua_Stateil
00000000000c9490 t _ZL15l_session_closeP9lua_State
00000000000c94b0 t _ZL17userauth_passwordP9lua_Stateil
00000000000c9610 t _ZL19l_userauth_passwordP9lua_State
00000000000c9630 t _ZL17publickey_canauthP9lua_Stateil
00000000000c97d0 t _ZL19l_publickey_canauthP9lua_State
00000000000c97f0 t _ZL16l_read_publickeyP9lua_State
00000000000c99e0 t _ZL18userauth_publickeyP9lua_Stateil
00000000000c9b60 t _ZL20l_userauth_publickeyP9lua_State
00000000000c9b80 t _ZL13l_set_timeoutP9lua_State
00000000000c9bd0 t _ZL14l_hostkey_hashP9lua_State
00000000000c9d70 t _ZL11finish_sendP9lua_Stateil
00000000000c9db0 t _ZL20do_session_handshakeP9lua_Stateil
00000000000c9eb0 t _ZL11finish_readP9lua_Stateil
00000000000ca040 t _ZL6filterP9lua_State
00000000000ca260 t _ZL2gcP9lua_State
00000000000ca2c0 t _ZL13channel_closeP9lua_Stateil
00000000000ca350 t _ZL15l_channel_closeP9lua_State
00000000000ca370 t _ZL13l_channel_eofP9lua_State
00000000000ca3d0 t _ZL16channel_send_eofP9lua_Stateil
00000000000ca460 t _ZL18l_channel_send_eofP9lua_State
00000000000ca480 t _ZL13setup_channelP9lua_Stateil
00000000000ca540 t _ZL19finish_open_channelP9lua_Stateil
00000000000ca620 t _ZL14l_open_channelP9lua_State
00000000000ca700 t _ZL19finish_session_openP9lua_Stateil
00000000000ca7b0 t _ZL13userauth_listP9lua_Stateil
00000000000ca9a0 t _ZL15l_userauth_listP9lua_State
00000000000ca9c0 T _Z15make_socketpairPii
00000000000caa30 t _ZL14l_session_openP9lua_State
00000000000cad10 T _Z15luaopen_libssh2P9lua_State
00000000000cae00 t _ZL16lzlib_decompressP9lua_State
00000000000cafb0 t _ZL14lzlib_compressP9lua_State
00000000000cb1d0 t _ZL13lzlib_versionP9lua_State
00000000000cb200 t _ZL12lzstream_getP9lua_Statei
00000000000cb260 t _ZL14lzstream_checkP9lua_Stateii
00000000000cb2c0 t _ZL14lzstream_adlerP9lua_State
00000000000cb330 t _ZL17lzstream_tostringP9lua_State
00000000000cb400 t _ZL14lzstream_linesP9lua_State
00000000000cb450 t _ZL11lzlib_crc32P9lua_State
00000000000cb510 t _ZL13lzlib_adler32P9lua_State
00000000000cb5d0 t _ZL16lzstream_cleanupP9lua_StateP9lz_stream
00000000000cb650 t _ZL11lzstream_gcP9lua_State
00000000000cb680 t _ZL19lzstream_docompressP9lua_StateP9lz_streamiii
00000000000cb870 t _ZL17lzstream_compressP9lua_State
00000000000cb8c0 t _ZL14lzstream_flushP9lua_State
00000000000cb940 t _ZL14lzstream_closeP9lua_State
00000000000cb9c0 t _ZL13lz_pushresultP9lua_StateP9lz_stream.isra.3
00000000000cba30 t _ZL22lzstream_inflate_blockP9lua_StateP9lz_stream
00000000000cbe60 t _ZL12lz_read_lineP9lua_StateP9lz_stream
00000000000cc080 t _ZL17lzstream_readlineP9lua_State
00000000000cc0d0 t _ZL13lz_read_charsP9lua_StateP9lz_streamm
00000000000cc260 t _ZL19lzstream_decompressP9lua_State
00000000000cc490 t _ZL12lzstream_newP9lua_Statei.constprop.6
00000000000cc5c0 t _ZL13lzlib_deflateP9lua_State
00000000000cc7c0 t _ZL13lzlib_inflateP9lua_State
00000000000cc9c0 T _Z12luaopen_zlibP9lua_State
00000000000cce50 t nsock_make_socket.isra.4
00000000000cd2d0 T nsock_setup_udp
00000000000cd380 T nsock_connect_internal
00000000000cd640 T nsock_connect_unixsock_stream
00000000000cd750 T nsock_connect_unixsock_datagram
00000000000cd870 T nsock_connect_tcp
00000000000cd990 T nsock_connect_sctp
00000000000cdab0 T nsock_connect_ssl
00000000000cdcf0 T nsock_reconnect_ssl
00000000000cde00 T nsock_connect_udp
00000000000cdf30 T nsock_iod_get_communication_info
00000000000ce100 t iod_add_event
00000000000ce3b0 t update_events
00000000000ce4c0 t socket_count_dec_ssl_desire.isra.14
00000000000ce560 t do_actual_read
00000000000ce9e0 t nevent_unref
00000000000cecd0 T socket_count_zero
00000000000ced00 T handle_connect_result
00000000000cf380 T handle_write_result
00000000000cf660 T handle_timer_result
00000000000cf670 T handle_read_result
00000000000cf840 T handle_pcap_read_result
00000000000cf940 T pcap_read_on_nonselect
00000000000cf980 T nsock_loop
00000000000cfc00 T process_event
00000000000cffb0 T process_iod_events
00000000000d0280 T process_expired_events
00000000000d0350 T nsock_loop_quit
00000000000d0360 T nsock_gettimeofday
00000000000d0390 T nsock_pool_add_event
00000000000d07a0 T nsock_trace_handler_callback
00000000000d0b40 T nsock_iod_new2
00000000000d0de0 T nsock_iod_new
00000000000d0df0 T nsock_iod_delete
00000000000d1150 T nsock_iod_id
00000000000d1180 T nsock_iod_get_ssl
00000000000d1190 T nsock_iod_get_ssl_session
00000000000d11b0 T nsi_set_ssl_session
00000000000d11c0 T nsock_iod_set_udata
00000000000d11f0 T nsock_iod_get_udata
00000000000d1220 T nsock_iod_check_ssl
00000000000d1230 T nsock_iod_get_peerport
00000000000d1260 T nsock_iod_set_localaddr
00000000000d12c0 T nsock_iod_set_ipoptions
00000000000d1330 T nsock_iod_get_sd
00000000000d1370 T nsock_iod_get_read_count
00000000000d13a0 T nsock_iod_get_write_count
00000000000d13d0 T nsock_iod_set_hostname
00000000000d1410 T nsock_readlines
00000000000d14e0 T nsock_readbytes
00000000000d15b0 T nsock_read
00000000000d1670 T nsock_timer_create
00000000000d1710 T nsock_sendto
00000000000d1920 T nsock_write
00000000000d1a70 T nsock_printf
00000000000d1d50 t ssl_init_helper
00000000000d1dd0 t nsock_pool_ssl_init_helper.isra.1
00000000000d1ed0 T nsock_pool_ssl_init
00000000000d1f20 T nsock_pool_dtls_init
00000000000d1fb0 T nsi_ssl_post_connect_verify
00000000000d2030 T nse_type
00000000000d2040 T nse_status
00000000000d2050 T nse_eof
00000000000d2060 T nse_iod
00000000000d2070 T nse_errorcode
00000000000d2080 T nse_id
00000000000d2090 T nse_readbuf
00000000000d20a0 T update_first_events
00000000000d2290 T get_new_event_id
00000000000d22e0 T get_event_id_type
00000000000d22f0 T event_new
00000000000d2670 T event_delete
00000000000d27a0 T event_dispatch_and_delete
00000000000d28a0 t nevent_delete.part.7
00000000000d2b20 T nevent_delete
00000000000d2b40 T nsock_event_cancel
00000000000d2d90 T nse_type2str
00000000000d2db0 T nse_status2str
00000000000d2dd0 T event_timedout
00000000000d2e10 t expirable_cmp
00000000000d2e50 T nsock_pool_get_error
00000000000d2e60 T nsock_pool_set_udata
00000000000d2e70 T nsock_pool_get_udata
00000000000d2e80 T nsock_pool_set_broadcast
00000000000d2e90 T nsock_pool_set_device
00000000000d2ea0 T nsock_pool_new
00000000000d3060 T nsock_pool_delete
00000000000d3680 t get_addr_string
00000000000d3710 T maximize_fdlimit
00000000000d3780 T get_unixsock_path
00000000000d37a0 T get_peeraddr_string
00000000000d37d0 T get_localaddr_string
00000000000d37f0 T nsock_pcap_open
00000000000d3ea0 T nsock_pcap_read_packet
00000000000d3f40 T do_actual_pcap_read
00000000000d4100 T nse_readpcap
00000000000d41e0 T nsock_iod_linktype
00000000000d4210 T nsock_iod_is_pcap
00000000000d4220 T posix_iod_connect
00000000000d4230 T posix_iod_read
00000000000d4260 T posix_iod_write
00000000000d42a0 T get_io_engine
00000000000d4310 T nsock_set_default_engine
00000000000d43a0 T nsock_list_engines
00000000000d43b0 t select_init
00000000000d4410 t select_destroy
00000000000d4440 t select_loop
00000000000d4a30 t select_iod_modify
00000000000d4bd0 t select_iod_register
00000000000d4c10 t select_iod_unregister
00000000000d4e40 t epoll_loop
00000000000d5220 t epoll_iod_modify
00000000000d5300 t epoll_iod_register
00000000000d53c0 t epoll_init
00000000000d5410 t epoll_iod_unregister
00000000000d5470 t epoll_destroy
00000000000d54b0 t poll_iod_modify
00000000000d5560 t poll_iod_register
00000000000d56a0 t poll_loop
00000000000d5a50 t poll_iod_unregister
00000000000d5af0 t poll_destroy
00000000000d5b30 t poll_init
00000000000d5ba0 t uri_free
00000000000d5be0 t hex_digit_value
00000000000d5c20 t proxy_node_new
00000000000d6000 t nsock_proxychain_delete.part.3
00000000000d60c0 T nsock_proxychain_delete
00000000000d60d0 T nsock_pool_set_proxychain
00000000000d6160 T nsock_proxychain_new
00000000000d62a0 T proxy_chain_context_new
00000000000d62d0 T proxy_chain_context_delete
00000000000d62e0 T forward_event
00000000000d63c0 T nsock_proxy_ev_dispatch
00000000000d6420 T proxy_resolve
00000000000d6480 t nsock_stderr_logger
00000000000d64a0 T nsock_get_loglevel
00000000000d64b0 T __nsock_log_internal
00000000000d6590 T nsock_set_log_function
00000000000d65f0 T nsock_set_loglevel
00000000000d6640 t proxy_http_node_new
00000000000d6700 t proxy_http_node_delete
00000000000d6730 t proxy_http_handler
00000000000d6980 t proxy_socks4_node_new
00000000000d6a60 t proxy_socks4_node_delete
00000000000d6a90 t proxy_socks4_handler
00000000000d6ce0 T filespace_init
00000000000d6d20 T fs_free
00000000000d6d50 T fs_cat
00000000000d6e40 t hnode_ptr.isra.0.part.1
00000000000d6e60 t hnode_up
00000000000d6fa0 T gh_heap_find
00000000000d6fc0 T gh_heap_free
00000000000d7010 T gh_heap_init
00000000000d7050 T gh_heap_push
00000000000d70e0 T gh_heap_remove
00000000000d7310 t find_last_path_separator
00000000000d7370 T Strncpy
00000000000d73a0 T Vsnprintf
00000000000d73e0 T Snprintf
00000000000d7470 T mkstr
00000000000d74c0 T alloc_vsprintf
00000000000d7570 T escape_windows_command_arg
00000000000d7790 T replacenonprintable
00000000000d77f0 T path_get_dirname
00000000000d78a0 T path_get_basename
00000000000d78c0 t executable_path_proc_self_exe
00000000000d7930 T socket_errno
00000000000d7940 T socket_strerror
00000000000d7950 T sockaddr_storage_cmp
00000000000d79d0 T sockaddr_storage_equal
00000000000d79f0 T inet_ntop_ez
00000000000d7a50 T inheritable_socket
00000000000d7a60 T dup_socket
00000000000d7a70 T unblock_socket
00000000000d7ab0 T block_socket
00000000000d7af0 T socket_bindtodevice
00000000000d7b50 T tval2secs
00000000000d7c50 T tval2msecs
00000000000d7ca0 T tval_unit
00000000000d7d00 T fselect
00000000000d7d10 T nbase_crc32
00000000000d7db0 T nbase_crc32c
00000000000d7e00 T nbase_adler32
00000000000d7ea0 T hexdump
00000000000d81b0 T parse_long
00000000000d8200 T format_bytecount
00000000000d82e0 T optcmp
00000000000d8340 T file_is_readable
00000000000d83b0 T executable_path
00000000000d83e0 T sockaddr_storage_inet_pton
00000000000d8450 T sockaddr_storage_iptop
00000000000d84b0 T safe_malloc
00000000000d84e0 T safe_realloc
00000000000d8510 T safe_zalloc
00000000000d8550 T nrand_get
00000000000d85b0 T nrand_init
00000000000d8850 T get_random_bytes
00000000000d8900 T get_random_int
00000000000d8920 T get_random_uint
00000000000d8940 T get_random_u64
00000000000d8960 T get_random_u32
00000000000d8970 T get_random_u8
00000000000d8990 T get_random_ushort
00000000000d89b0 T get_random_u16
00000000000d89c0 T get_random_unique_u32
00000000000d8a60 t default_log_user
00000000000d8a70 t default_log_debug
00000000000d8a80 t apply_ipv4_netmask_octet
00000000000d8b40 t apply_ipv4_netmask_bits.part.0
00000000000d8be0 T nbase_set_log
00000000000d8c10 T addrset_init
00000000000d8c20 T addrset_free
00000000000d8c60 T addrset_elem_print
00000000000d8e20 T addrset_add_spec
00000000000d9590 T addrset_add_file
00000000000d9680 T addrset_contains
00000000000d9770 T pcap_not_initialized
00000000000d9780 t pcap_cant_set_rfmon
00000000000d9790 T pcap_oneshot
00000000000d97b0 t pcap_cleanup_dead
00000000000d97c0 t pcap_stats_dead
00000000000d9810 T pcap_cleanup_live_common
00000000000d98d0 T pcap_can_set_rfmon
00000000000d98e0 T pcap_free_tstamp_types
00000000000d98f0 T pcap_next_ex
00000000000d9940 T pcap_findalldevs
00000000000d99e0 T pcap_create
00000000000d9a70 T pcap_check_activated
00000000000d9ad0 T pcap_set_snaplen
00000000000d9b00 T pcap_set_promisc
00000000000d9b30 T pcap_set_rfmon
00000000000d9b60 T pcap_set_timeout
00000000000d9b90 T pcap_set_tstamp_type
00000000000d9c20 T pcap_set_immediate_mode
00000000000d9c50 T pcap_set_buffer_size
00000000000d9c80 T pcap_set_tstamp_precision
00000000000d9d10 T pcap_get_tstamp_precision
00000000000d9d20 T pcap_dispatch
00000000000d9d30 T pcap_next
00000000000d9d80 T pcap_read
00000000000d9d90 T pcap_loop
00000000000d9e00 T pcap_breakloop
00000000000d9e10 T pcap_datalink
00000000000d9e30 T pcap_datalink_ext
00000000000d9e50 T pcap_free_datalinks
00000000000d9e60 T pcap_strcasecmp
00000000000d9eb0 T pcap_datalink_name_to_val
00000000000d9f20 T pcap_datalink_val_to_name
00000000000d9f60 T pcap_set_datalink
00000000000da060 T pcap_datalink_val_to_description
00000000000da0c0 T pcap_tstamp_type_name_to_val
00000000000da130 T pcap_tstamp_type_val_to_name
00000000000da170 T pcap_tstamp_type_val_to_description
00000000000da1d0 T pcap_snapshot
00000000000da1f0 T pcap_is_swapped
00000000000da210 T pcap_major_version
00000000000da230 T pcap_minor_version
00000000000da250 T pcap_file
00000000000da260 T pcap_fileno
00000000000da270 T pcap_get_selectable_fd
00000000000da280 T pcap_perror
00000000000da2b0 T pcap_geterr
00000000000da2c0 T pcap_getnonblock
00000000000da310 T pcap_setnonblock
00000000000da360 T pcap_statustostr
00000000000da4a0 T pcap_activate
00000000000da580 T pcap_strerror
00000000000da590 T pcap_list_tstamp_types
00000000000da640 t pcap_alloc_pcap_t
00000000000da6c0 T pcap_create_common
00000000000da7f0 T pcap_open_offline_common
00000000000da8a0 T pcap_list_datalinks
00000000000da970 T pcap_getnonblock_fd
00000000000da9d0 T pcap_setnonblock_fd
00000000000daa80 T pcap_setfilter
00000000000daa90 T pcap_setdirection
00000000000daac0 T pcap_stats
00000000000daad0 T pcap_do_addexit
00000000000dabb0 T pcap_add_to_pcaps_to_close
00000000000dabd0 T pcap_remove_from_pcaps_to_close
00000000000dac30 T pcap_open_dead_with_tstamp_precision
00000000000daca0 T pcap_open_dead
00000000000dacb0 T pcap_sendpacket
00000000000dacd0 T pcap_inject
00000000000dace0 T pcap_close
00000000000dad10 T pcap_open_live
00000000000dae20 t pcap_close_all
00000000000dae60 T pcap_offline_filter
00000000000dae90 T pcap_lib_version
00000000000daea0 t get_figure_of_merit.isra.1
00000000000daf60 T dup_sockaddr
00000000000dafa0 T add_or_find_if
00000000000db200 T add_addr_to_dev
00000000000db4b0 T add_addr_to_iflist
00000000000db540 T pcap_add_if
00000000000db570 T pcap_freealldevs
00000000000db630 T pcap_lookupdev
00000000000db730 T pcap_lookupnet
00000000000db9b0 t ethertype_to_ppptype
00000000000dba40 t freechunks
00000000000dba90 T bpf_error
00000000000dbb50 t newchunk
00000000000dbc00 t gen_uncond
00000000000dbc50 t alloc_reg
00000000000dbcf0 t gen_abs_offset_varpart
00000000000dbd40 t lookup_proto
00000000000dbe50 T sdup
00000000000dbe90 T pcap_compile
00000000000dca20 T pcap_compile_nopcap
00000000000dca80 T pcap_freecode
00000000000dcab0 T gen_and
00000000000dcb60 T gen_or
00000000000dcbf0 T gen_not
00000000000dcc00 T sappend
00000000000dcc20 t gen_load_radiotap_llprefixlen
00000000000dcd30 T finish_parse
00000000000dd550 t gen_loadx_iphdrlen
00000000000dd650 t gen_load_absoffsetrel
00000000000dd6d0 t gen_check_802_11_data_frame
00000000000dd770 t gen_mac_multicast
00000000000dd7b0 t gen_ipfrag
00000000000dd810 t gen_ncmp
00000000000dda00 t gen_bcmp
00000000000ddb70 t gen_snap
00000000000ddbc0 t gen_ehostop
00000000000ddcf0 t gen_fhostop
00000000000dde20 t gen_thostop
00000000000ddf50 t gen_ipfchostop
00000000000de080 t gen_ahostop
00000000000de1b0 t gen_llc_linktype
00000000000de2b0 T gen_portop6
00000000000de450 T gen_portop
00000000000de600 t gen_geneve_check
00000000000de6b0 t gen_wlanhostop
00000000000deea0 t gen_portrangeatom
00000000000def20 T gen_portrangeop
00000000000df030 t gen_portrangeatom6
00000000000df0b0 T gen_portrangeop6
00000000000df1b0 t gen_prevlinkhdr_check
00000000000df2a0 T gen_ecode
00000000000df3d0 T gen_relation
00000000000df550 T gen_loadlen
00000000000df5b0 T gen_loadi
00000000000df620 T gen_neg
00000000000df690 T gen_arth
00000000000df770 T gen_greater
00000000000df7c0 T gen_less
00000000000df810 T gen_byteop
00000000000df910 T gen_pf_ifname
00000000000df930 T gen_pf_ruleset
00000000000df950 T gen_pf_rnr
00000000000df970 T gen_pf_srnr
00000000000df990 T gen_pf_reason
00000000000df9b0 T gen_pf_action
00000000000df9d0 T gen_p80211_type
00000000000dfa30 T gen_p80211_fcdir
00000000000dfa90 T gen_acode
00000000000dfaf0 T gen_geneve
00000000000dffc0 T gen_atmfield_code
00000000000e0100 t gen_linktype
00000000000e0df0 t gen_proto
00000000000e11d0 T gen_proto_abbrev
00000000000e17a0 T gen_load
00000000000e1b90 T gen_inbound
00000000000e1e30 t gen_hostop
00000000000e1f40 t gen_dnhostop
00000000000e2200 t gen_host
00000000000e24d0 T gen_mcode
00000000000e25e0 t gen_port
00000000000e26a0 t gen_port6
00000000000e2760 t gen_portrange
00000000000e2840 t gen_portrange6
00000000000e2920 t gen_protochain
00000000000e3160 T gen_ncode
00000000000e34a0 T gen_broadcast
00000000000e3690 T gen_multicast
00000000000e3a00 t gen_vlan_no_bpf_extensions
00000000000e3a80 T gen_vlan
00000000000e3bf0 T gen_mpls
00000000000e3cf0 T gen_pppoed
00000000000e3d00 T gen_pppoes
00000000000e3df0 t gen_hostop6.constprop.9
00000000000e3fb0 t gen_host6
00000000000e4200 T gen_mcode6
00000000000e4430 T gen_scode
00000000000e4c40 T gen_atmtype_abbrev
00000000000e4f40 T gen_llc
00000000000e5070 T gen_llc_i
00000000000e50e0 T gen_llc_s
00000000000e5130 T gen_llc_u
00000000000e5180 T gen_llc_s_subtype
00000000000e51d0 T gen_llc_u_subtype
00000000000e5220 T gen_mtp2type_abbrev
00000000000e54a0 T gen_mtp3field_code
00000000000e5690 T gen_atmmulti_abbrev
00000000000e5940 t find_levels_r
00000000000e59d0 t propedom
00000000000e5a50 t F
00000000000e5b20 t make_marks
00000000000e5b60 t count_blocks
00000000000e5bc0 t number_blks_r
00000000000e5c30 t count_stmts
00000000000e5cb0 t convert_code_r
00000000000e6020 t atomdef.isra.1
00000000000e6090 t find_inedges.isra.6
00000000000e6160 t atomuse.isra.8
00000000000e6220 t deadstmt
00000000000e62a0 t fold_op.isra.10
00000000000e6400 t opt_j
00000000000e6640 t opt_loop
00000000000e7c30 T bpf_optimize
00000000000e82b0 T icode_to_fcode
00000000000e8350 T install_bpf_program
00000000000e8420 T pcap_nametoaddr
00000000000e8460 T pcap_nametoaddrinfo
00000000000e84b0 T pcap_nametonetaddr
00000000000e84d0 T pcap_nametoport
00000000000e85c0 T pcap_nametoportrange
00000000000e86c0 T pcap_nametoproto
00000000000e86e0 T pcap_nametoeproto
00000000000e8740 T pcap_nametollc
00000000000e87a0 T __pcap_atoin
00000000000e8800 T __pcap_atodn
00000000000e8860 T pcap_ether_aton
00000000000e8950 T pcap_ether_hostton
00000000000e8990 T __pcap_nametodnaddr
00000000000e89b0 t sf_getnonblock
00000000000e89c0 t sf_stats
00000000000e8a10 t sf_setnonblock
00000000000e8a70 t sf_setdirection
00000000000e8ab0 t sf_inject
00000000000e8b50 T pcap_offline_read
00000000000e8c40 T sf_cleanup
00000000000e8c80 T pcap_fopen_offline_with_tstamp_precision
00000000000e8e60 T pcap_open_offline_with_tstamp_precision
00000000000e8f30 T pcap_open_offline
00000000000e8f40 T pcap_fopen_offline
00000000000e8f50 t pcap_next_packet
00000000000e92d0 t pcap_setup_dump
00000000000e93a0 T pcap_check_header
00000000000e9750 T pcap_dump
00000000000e97b0 T pcap_dump_open
00000000000e98a0 T pcap_dump_fopen
00000000000e9910 T pcap_dump_open_append
00000000000e9cf0 T pcap_dump_file
00000000000e9d00 T pcap_dump_ftell
00000000000e9d10 T pcap_dump_flush
00000000000e9d30 T pcap_dump_close
00000000000e9d40 t pcap_ng_cleanup
00000000000e9d60 t read_bytes
00000000000e9e00 t read_block
00000000000e9f70 t get_from_block_data.part.1
00000000000e9fa0 t add_interface
00000000000ea3f0 t pcap_ng_next_packet
00000000000ea8c0 T pcap_ng_check_header
00000000000ead50 t swap_linux_usb_header.isra.0
00000000000eaeb0 T dlt_to_linktype
00000000000eaf10 T linktype_to_dlt
00000000000eaf70 T swap_pseudo_headers
00000000000eb020 t yy_fatal_error
00000000000eb050 T pcap__flush_buffer
00000000000eb0e0 t pcap__init_buffer
00000000000eb160 T pcap_get_debug
00000000000eb170 T pcap_set_debug
00000000000eb180 T pcap_alloc
00000000000eb190 T pcap__create_buffer
00000000000eb1f0 T pcap_realloc
00000000000eb200 t pcap_ensure_buffer_stack
00000000000eb2c0 T pcap_restart
00000000000eb3a0 T pcap__switch_to_buffer
00000000000eb450 T pcap__scan_buffer
00000000000eb4e0 T pcap__scan_bytes
00000000000eb560 T pcap__scan_string
00000000000eb580 T pcap_push_buffer_state
00000000000eb650 T pcap_free
00000000000eb660 T pcap__delete_buffer
00000000000eb6d0 T pcap_pop_buffer_state
00000000000eb790 T pcap_lex_destroy
00000000000eb860 T lex_init
00000000000eb880 T lex_cleanup
00000000000eb8c0 T pcap_wrap
00000000000eb8d0 T pcap_lex
00000000000ecc10 t str2tok
00000000000ecc70 T pcap_parse
00000000000ee6f0 T bpf_filter_with_aux_data
00000000000eeba0 T bpf_filter
00000000000eebb0 T bpf_validate
00000000000eed80 t pcap_set_datalink_linux
00000000000eed90 t pcap_getnonblock_mmap
00000000000eeda0 t is_bonding_device
00000000000eee20 t pcap_setnonblock_mmap
00000000000eee60 t pcap_oneshot_mmap
00000000000eeeb0 t pcap_read_linux
00000000000ef410 t pcap_handle_packet_mmap
00000000000ef6f0 t pcap_setfilter_linux_common
00000000000efcb0 t pcap_setfilter_linux
00000000000efcc0 t linux_if_drops
00000000000efe00 t pcap_stats_linux
00000000000eff00 t pcap_cleanup_linux
00000000000f01d0 t add_linux_if
00000000000f0350 t scan_sys_class_net
00000000000f0530 t scan_proc_net_dev
00000000000f0700 t iface_set_default_ts_types.isra.1
00000000000f0730 t pcap_can_set_rfmon_linux
00000000000f08a0 t has_wext
00000000000f0940 t is_wifi
00000000000f09d0 t map_arphrd_to_dlt
00000000000f0df0 t iface_get_arptype
00000000000f0ea0 t iface_get_id
00000000000f0f20 t iface_get_mtu
00000000000f0fb0 t activate_old
00000000000f1400 t pcap_setdirection_linux
00000000000f1470 t pcap_inject_linux
00000000000f1630 t iface_ethtool_flag_ioctl
00000000000f1710 t destroy_ring.isra.11
00000000000f1760 t pcap_cleanup_linux_mmap
00000000000f17a0 t pcap_wait_for_frames_mmap
00000000000f19e0 t pcap_activate_linux
00000000000f3610 t pcap_read_linux_mmap_v1
00000000000f3770 t pcap_read_linux_mmap_v1_64
00000000000f38d0 t pcap_read_linux_mmap_v2
00000000000f3a80 t pcap_setfilter_linux_mmap
00000000000f3b50 T pcap_create_interface
00000000000f3eb0 T pcap_platform_finddevs
00000000000f3f10 t usb_setdirection_linux
00000000000f3f20 t usb_dev_add
00000000000f3fa0 t usb_stats_linux
00000000000f41e0 t usb_read_linux_bin
00000000000f4350 t usb_read_linux_mmap
00000000000f45c0 t probe_devices
00000000000f46d0 t usb_cleanup_linux_mmap
00000000000f4710 t usb_inject_linux
00000000000f4740 t usb_stats_linux_bin
00000000000f47d0 t usb_activate
00000000000f4af0 t usb_read_linux
00000000000f50e0 T usb_findalldevs
00000000000f5260 T usb_create
00000000000f5320 t netfilter_set_datalink
00000000000f5330 t netfilter_stats_linux
00000000000f5350 t netfilter_inject_linux
00000000000f53a0 t netfilter_send_config_msg
00000000000f5610 t nfqueue_send_config_cmd
00000000000f5660 t netfilter_activate
00000000000f5d20 t netfilter_read_linux
00000000000f6110 T netfilter_create
00000000000f61b0 T netfilter_findalldevs
00000000000f6280 T pcap_findalldevs_interfaces
00000000000f65a0 t channel_send_eof
00000000000f6630 T _libssh2_channel_nextid
00000000000f6680 T _libssh2_channel_locate
00000000000f6720 T _libssh2_channel_open
00000000000f6c90 T libssh2_channel_open_ex
00000000000f6d50 T libssh2_channel_direct_tcpip_ex
00000000000f6f40 T libssh2_channel_forward_listen_ex
00000000000f7340 T libssh2_channel_forward_accept
00000000000f7440 T libssh2_channel_setenv_ex
00000000000f7710 T libssh2_channel_request_pty_ex
00000000000f79e0 T libssh2_channel_request_pty_size_ex
00000000000f7bd0 T libssh2_channel_x11_req_ex
00000000000f7f70 T _libssh2_channel_process_startup
00000000000f8230 T libssh2_channel_process_startup
00000000000f82b0 T libssh2_channel_set_blocking
00000000000f82d0 T libssh2_channel_get_exit_status
00000000000f82e0 T libssh2_channel_get_exit_signal
00000000000f8410 T _libssh2_channel_receive_window_adjust
00000000000f8520 T _libssh2_channel_flush
00000000000f8700 T libssh2_channel_flush_ex
00000000000f8760 T libssh2_channel_receive_window_adjust
00000000000f8810 T libssh2_channel_receive_window_adjust2
00000000000f8880 T _libssh2_channel_extended_data
00000000000f88a0 T libssh2_channel_handle_extended_data2
00000000000f8900 T libssh2_channel_handle_extended_data
00000000000f8910 T _libssh2_channel_read
00000000000f8bd0 T libssh2_channel_read_ex
00000000000f8ce0 T _libssh2_channel_packet_data_len
00000000000f8db0 T _libssh2_channel_write
00000000000f9010 T libssh2_channel_write_ex
00000000000f9080 T libssh2_channel_send_eof
00000000000f90e0 T libssh2_channel_eof
00000000000f9160 T libssh2_channel_wait_eof
00000000000f9230 T _libssh2_channel_close
00000000000f93d0 T libssh2_channel_close
00000000000f9430 T libssh2_channel_wait_closed
00000000000f9510 T _libssh2_channel_free
00000000000f9680 T _libssh2_channel_forward_cancel
00000000000f9860 T libssh2_channel_forward_cancel
00000000000f98c0 T libssh2_channel_free
00000000000f9920 T libssh2_channel_window_read_ex
00000000000f99e0 T libssh2_channel_window_write_ex
00000000000f9a00 t hostkey_method_ssh_dss_dtor
00000000000f9a20 t hostkey_method_ssh_dss_signv
00000000000f9b00 t hostkey_method_ssh_dss_initPEMFromMemory
00000000000f9b70 t hostkey_method_ssh_dss_initPEM
00000000000f9bd0 t hostkey_method_ssh_dss_init
00000000000f9cd0 t hostkey_method_ssh_rsa_dtor
00000000000f9cf0 t hostkey_method_ssh_rsa_signv
00000000000f9da0 t hostkey_method_ssh_rsa_sig_verify
00000000000f9db0 t hostkey_method_ssh_rsa_initPEMFromMemory
00000000000f9e20 t hostkey_method_ssh_rsa_initPEM
00000000000f9e80 t hostkey_method_ssh_rsa_init
00000000000f9f40 t hostkey_method_ssh_dss_sig_verify
00000000000f9f80 T libssh2_hostkey_methods
00000000000f9f90 T libssh2_hostkey_hash
00000000000f9fd0 T libssh2_session_hostkey
00000000000fa090 T _libssh2_error_flags
00000000000fa160 T _libssh2_error
00000000000fa170 T _libssh2_recv
00000000000fa1b0 T _libssh2_send
00000000000fa1d0 T _libssh2_ntohu32
00000000000fa1e0 T _libssh2_ntohu64
00000000000fa1f0 T _libssh2_htonu32
00000000000fa210 T _libssh2_store_u32
00000000000fa230 T _libssh2_store_str
00000000000fa290 T libssh2_base64_decode
00000000000fa3d0 T _libssh2_base64_encode
00000000000fa600 T libssh2_free
00000000000fa610 T libssh2_trace
00000000000fa620 T libssh2_trace_sethandler
00000000000fa630 T _libssh2_list_init
00000000000fa640 T _libssh2_list_add
00000000000fa670 T _libssh2_list_first
00000000000fa680 T _libssh2_list_next
00000000000fa690 T _libssh2_list_prev
00000000000fa6a0 T _libssh2_list_remove
00000000000fa6e0 T _libssh2_calloc
00000000000fa710 T _libssh2_packet_add
00000000000fb680 T _libssh2_packet_ask
00000000000fb760 T _libssh2_packet_askv
00000000000fb800 T _libssh2_packet_require
00000000000fb940 T _libssh2_packet_burn
00000000000fba50 T _libssh2_packet_requirev
00000000000fbba0 t libssh2_default_realloc
00000000000fbbb0 t libssh2_default_free
00000000000fbbc0 t libssh2_default_alloc
00000000000fbbd0 T libssh2_session_banner_set
00000000000fbcb0 T libssh2_banner_set
00000000000fbcc0 T libssh2_session_init_ex
00000000000fbd70 T libssh2_session_callback_set
00000000000fbdf0 T _libssh2_wait_socket
00000000000fbf80 T libssh2_session_handshake
00000000000fc610 T libssh2_session_startup
00000000000fc620 T libssh2_session_free
00000000000fcb80 T libssh2_session_disconnect_ex
00000000000fcd10 T libssh2_session_methods
00000000000fce10 T libssh2_session_abstract
00000000000fce20 T libssh2_session_last_error
00000000000fcf20 T libssh2_session_last_errno
00000000000fcf30 T libssh2_session_set_last_error
00000000000fcf40 T libssh2_session_flag
00000000000fcf70 T _libssh2_session_set_blocking
00000000000fcf80 T libssh2_session_set_blocking
00000000000fcf90 T libssh2_session_get_blocking
00000000000fcfa0 T libssh2_session_set_timeout
00000000000fcfb0 T libssh2_session_get_timeout
00000000000fcfc0 T libssh2_poll_channel_read
00000000000fd070 T libssh2_poll
00000000000fd4b0 T libssh2_session_block_directions
00000000000fd4c0 T libssh2_session_banner_get
00000000000fd4e0 t file_read_publickey
00000000000fd770 t file_read_privatekey
00000000000fd860 t sign_fromfile
00000000000fd920 t sign_frommemory
00000000000fdab0 T libssh2_userauth_list
00000000000fddb0 T libssh2_userauth_authenticated
00000000000fddc0 T libssh2_userauth_password_ex
00000000000fe3a0 T libssh2_userauth_hostbased_fromfile_ex
00000000000feaa0 T _libssh2_userauth_publickey
00000000000ff320 T libssh2_userauth_publickey_frommemory
00000000000ff690 T libssh2_userauth_publickey_fromfile_ex
00000000000ff810 T libssh2_userauth_publickey
00000000000ff8b0 T libssh2_userauth_keyboard_interactive_ex
0000000000100190 t decrypt
0000000000100260 T _libssh2_transport_read
0000000000100950 T _libssh2_transport_send
0000000000100e50 t passphrase_cb
0000000000100ea0 t write_bn
0000000000100f00 t gen_publickey_from_dsa_evp
0000000000101120 t gen_publickey_from_rsa_evp
00000000001012c0 T _libssh2_rsa_new
0000000000101420 T _libssh2_dsa_new
0000000000101500 T _libssh2_cipher_init
0000000000101550 T _libssh2_cipher_crypt
00000000001015a0 T _libssh2_init_aes_ctr
00000000001015b0 T _libssh2_rsa_new_private_frommemory
0000000000101620 T _libssh2_rsa_new_private
0000000000101690 T _libssh2_dsa_new_private_frommemory
0000000000101700 T _libssh2_dsa_new_private
0000000000101770 T _libssh2_rsa_sha1_sign
0000000000101820 T _libssh2_dsa_sha1_sign
0000000000101920 T _libssh2_sha1_init
0000000000101940 T _libssh2_sha1
00000000001019a0 T _libssh2_rsa_sha1_verify
0000000000101a00 T _libssh2_dsa_sha1_verify
0000000000101ad0 T _libssh2_sha256_init
0000000000101af0 T _libssh2_sha256
0000000000101b50 T _libssh2_md5_init
0000000000101b70 T _libssh2_pub_priv_keyfile
0000000000101cb0 T _libssh2_pub_priv_keyfilememory
0000000000101df0 T libssh2_keepalive_config
0000000000101e10 T libssh2_keepalive_send
0000000000101f20 T libssh2_init
0000000000101f80 T libssh2_exit
0000000000101fa0 T _libssh2_init_if_needed
0000000000101fc0 t kex_method_list
0000000000102050 t diffie_hellman_sha1
00000000001032f0 t kex_method_diffie_hellman_group_exchange_sha1_key_exchange
0000000000103550 t kex_get_method_by_name
00000000001035b0 t kex_method_strlen.part.0
0000000000103610 t kex_method_diffie_hellman_group1_sha1_key_exchange
0000000000103700 t kex_method_diffie_hellman_group14_sha1_key_exchange
00000000001037f0 t kex_agree_instr
00000000001038b0 t kex_agree_hostkey.isra.4
0000000000103a70 t kex_agree_crypt.isra.5
0000000000103bb0 t kex_agree_mac.isra.6
0000000000103cf0 t kex_agree_comp.isra.7
0000000000103e30 t diffie_hellman_sha256.constprop.8
00000000001050b0 t kex_method_diffie_hellman_group_exchange_sha256_key_exchange
0000000000105300 T _libssh2_kex_exchange
0000000000106230 T libssh2_session_method_pref
0000000000106520 T libssh2_session_supported_algs
00000000001066b0 t mac_method_common_init
00000000001066c0 t mac_method_common_dtor
00000000001066e0 t mac_method_hmac_ripemd160_hash
00000000001067b0 t mac_method_hmac_md5_hash
0000000000106880 t mac_method_hmac_md5_96_hash
00000000001068c0 t mac_method_hmac_sha1_hash
0000000000106990 t mac_method_hmac_sha1_96_hash
00000000001069d0 t mac_method_hmac_sha2_512_hash
0000000000106aa0 t mac_method_hmac_sha2_256_hash
0000000000106b70 T _libssh2_mac_methods
0000000000106b80 t comp_method_none_comp
0000000000106b90 t comp_method_none_decomp
0000000000106ba0 t comp_method_zlib_alloc
0000000000106bb0 t comp_method_zlib_free
0000000000106bc0 t comp_method_zlib_dtor
0000000000106c10 t comp_method_zlib_decomp
0000000000106d80 t comp_method_zlib_comp
0000000000106e00 t comp_method_zlib_init
0000000000106ec0 T _libssh2_comp_methods
0000000000106ee0 t crypt_dtor
0000000000106f30 t crypt_encrypt
0000000000106f50 t crypt_init
0000000000107000 t crypt_init_arcfour128
0000000000107070 T libssh2_crypt_methods
0000000000107080 t _ZL23ipv6_get_data_primitivePK7ip6_hdrPjPhb
0000000000107120 t _ZL21ip_get_data_primitivePKvPjP15abstract_ip_hdrb
0000000000107300 t _ZL6STRAPPPKcz
0000000000107400 t _ZL8routecmpPKvS0_
0000000000107450 t _ZL12set_sockaddrP16sockaddr_storageiPv
0000000000107480 t _ZL9accept_nsPKhPK11pcap_pkthdrim
00000000001074b0 t _ZL16resolve_internalPKctP16sockaddr_storagePmii
0000000000107690 t _ZL20canonicalize_addressPK16sockaddr_storagePS_
0000000000107890 t _ZL23collect_dnet_interfacesPK10intf_entryPv
0000000000107bf0 t _ZL10accept_arpPKhPK11pcap_pkthdrim
0000000000107c90 T _Z13netutil_fatalPKcz
0000000000107d70 t _ZL15add_rtattr_addrP8nlmsghdrPP6rtattrPjhPK16sockaddr_storagei
0000000000108040 T _Z13netutil_errorPKcz
0000000000108130 T _Z16parse_ip_optionsPKcPhiPiS2_Pcm
0000000000108710 T _Z7resolvePKctP16sockaddr_storagePmi
0000000000108720 T _Z15resolve_numericPKctP16sockaddr_storagePmi
0000000000108730 T _Z14ip_is_reservedP7in_addr
00000000001087f0 T _Z13mac_cache_getPK16sockaddr_storagePh
0000000000108880 T _Z13mac_cache_setPK16sockaddr_storagePh
0000000000108a50 T _Z8in_cksumPti
0000000000108a80 T _Z11ip_get_dataPKvPjP15abstract_ip_hdr
0000000000108a90 T _Z15ip_get_data_anyPKvPjP15abstract_ip_hdr
0000000000108aa0 T _Z13ipv4_get_dataPK2ipPj
0000000000108ad0 T _Z13ipv6_get_dataPK7ip6_hdrPjPh
0000000000108ae0 T _Z17ipv6_get_data_anyPK7ip6_hdrPjPh
0000000000108af0 T _Z13icmp_get_dataPK8icmp_hdrPj
0000000000108b30 T _Z15icmpv6_get_dataPK10icmpv6_hdrPj
0000000000108b70 T _Z23ipv4_pseudoheader_cksumPK7in_addrS1_htPKv
0000000000108c20 T _Z23ipv6_pseudoheader_cksumPK8in6_addrS1_hjPKv
0000000000108cf0 T _Z13sethdrincludei
0000000000108d40 T _Z13set_ipoptionsiPvm
0000000000108d70 T _Z7set_ttlii
0000000000108da0 T _Z24pcap_selectable_fd_validv
0000000000108db0 T _Z25my_pcap_get_selectable_fdP4pcap
0000000000108dc0 T _Z29pcap_selectable_fd_one_to_onev
0000000000108dd0 T _Z11pcap_selectP4pcapP7timeval
0000000000108ed0 t _ZL15read_reply_pcapP4pcaplPFbPKhPK11pcap_pkthdrimEPPhPS3_P7timevalPiPm
0000000000109190 T _Z11pcap_selectP4pcapl
0000000000109200 T _Z15eth_open_cachedPKc
00000000001092a0 T _Z16eth_close_cachedv
00000000001092d0 T _Z16proto2ascii_casehi
0000000000109420 T _Z21proto2ascii_lowercaseh
0000000000109430 T _Z21proto2ascii_uppercaseh
0000000000109440 T _Z16tcppacketoptinfoPhiPci
00000000001097b0 T _Z13getinterfacesPiPcm
00000000001098f0 T _Z14ipaddr2devnamePcPK16sockaddr_storage
00000000001099a0 T _Z14devname2ipaddrPcP16sockaddr_storage
0000000000109ae0 T _Z18getInterfaceByNamePKci
0000000000109ba0 t _ZL19collect_dnet_routesPK11route_entryPv
0000000000109c80 t _ZL17route_dst_netlinkPK16sockaddr_storageP9route_nfoPKcS1_
000000000010a240 T _Z14sockaddr_equalPK16sockaddr_storageS1_
000000000010a2a0 T _Z22sockaddr_equal_netmaskPK16sockaddr_storageS1_t
000000000010a360 T _Z19sockaddr_equal_zeroPK16sockaddr_storage
000000000010a3b0 T _Z12getsysroutesPiPcm
000000000010a830 T _Z11islocalhostPK16sockaddr_storage
000000000010a8e0 T _Z11isipprivatePK16sockaddr_storage
000000000010a940 T _Z10nexthdrtoahi
000000000010b320 T _Z17format_ip_optionsPKhi
000000000010ba60 T _Z15ippackethdrinfoPKhji
000000000010dad0 T _Z9route_dstPK16sockaddr_storageP9route_nfoPKcS1_
000000000010dae0 T _Z6SendtoPKciPKhijP8sockaddri
000000000010dc80 T _Z18send_ip_packet_ethPK7eth_nfoPKhj
000000000010dd30 T _Z17send_ip_packet_sdiPK11sockaddr_inPKhj
000000000010de00 T _Z24send_ip_packet_eth_or_sdiPK7eth_nfoPK11sockaddr_inPKhj
000000000010de30 T _Z19send_frag_ip_packetiPK7eth_nfoPK11sockaddr_inPKhjj
000000000010e080 T _Z26send_ipv6_packet_eth_or_sdiPK7eth_nfoPK12sockaddr_in6PKhj
000000000010e1b0 T _Z17my_pcap_open_livePKciii
000000000010e2e0 T _Z15set_pcap_filterPKcP4pcapS0_z
000000000010e440 T _Z15datalink_offseti
000000000010e460 T _Z19read_arp_reply_pcapP4pcapPhP7in_addrlP7timevalPFviPKhjS5_E
000000000010e530 T _Z18read_ns_reply_pcapP4pcapPhP12sockaddr_in6lP7timevalPFviPKhjS5_E
000000000010e600 T _Z4doNDPKcPKhPK16sockaddr_storageS5_PhPFviS2_jP7timevalE
000000000010ea70 T _Z5doArpPKcPKhPK16sockaddr_storageS5_PhPFviS2_jP7timevalE
000000000010eda0 T _Z19read_host_from_fileP8_IO_FILEPcm
000000000010eec0 T _Z19grab_next_host_specP8_IO_FILEbiPPKc
000000000010ef90 T _Z24set_max_open_descriptorsi
000000000010f030 T _Z24get_max_open_descriptorsv
000000000010f080 T _Z6max_sdv
000000000010f090 T _ZN12ICMPv6HeaderD1Ev
000000000010f0a0 T _ZN12ICMPv6Header16getBufferPointerEv
000000000010f0b0 T _ZNK12ICMPv6Header11protocol_idEv
000000000010f0c0 T _ZN12ICMPv6Header7setTypeEh
000000000010f0f0 T _ZNK12ICMPv6Header7getTypeEv
000000000010f100 T _ZN12ICMPv6Header7setCodeEh
000000000010f110 T _ZNK12ICMPv6Header7getCodeEv
000000000010f120 T _ZN12ICMPv6HeaderD0Ev
000000000010f130 T _ZNK12ICMPv6Header7isErrorEv
000000000010f170 T _ZN12ICMPv6Header5resetEv
000000000010f1f0 T _ZN12ICMPv6HeaderC1Ev
000000000010f210 T _ZN12ICMPv6Header13storeRecvDataEPKhm
000000000010f2a0 T _ZN12ICMPv6Header8validateEv
000000000010f2f0 T _ZN12ICMPv6Header12validateTypeEh
000000000010f320 T _ZN12ICMPv6Header12validateTypeEv
000000000010f350 T _ZN12ICMPv6Header12validateCodeEhh
000000000010f360 T _ZN12ICMPv6Header6setSumEv
000000000010fa50 T _ZN12ICMPv6Header6setSumEt
000000000010fa60 T _ZNK12ICMPv6Header6getSumEv
000000000010fa70 T _ZN12ICMPv6Header11setReservedEj
000000000010fbb0 T _ZNK12ICMPv6Header11getReservedEv
000000000010fcc0 T _ZN12ICMPv6Header9setUnusedEj
000000000010fcd0 T _ZNK12ICMPv6Header9getUnusedEv
000000000010fce0 T _ZN12ICMPv6Header8setFlagsEh
000000000010fd50 T _ZNK12ICMPv6Header8getFlagsEv
000000000010fdc0 T _ZN12ICMPv6Header6setMTUEj
000000000010fdd0 T _ZNK12ICMPv6Header6getMTUEv
000000000010fde0 T _ZN12ICMPv6Header10setPointerEj
000000000010fdf0 T _ZNK12ICMPv6Header10getPointerEv
000000000010fe00 T _ZN12ICMPv6Header13setIdentifierEt
000000000010fe10 T _ZNK12ICMPv6Header13getIdentifierEv
000000000010fe20 T _ZN12ICMPv6Header11setSequenceEt
000000000010fe60 T _ZN12ICMPv6Header11setSequenceEj
000000000010fea0 T _ZNK12ICMPv6Header11getSequenceEv
000000000010fee0 T _ZN12ICMPv6Header18setCurrentHopLimitEh
000000000010fef0 T _ZNK12ICMPv6Header18getCurrentHopLimitEv
000000000010ff00 T _ZN12ICMPv6Header17setRouterLifetimeEt
000000000010ff10 T _ZNK12ICMPv6Header17getRouterLifetimeEv
000000000010ff20 T _ZN12ICMPv6Header16setReachableTimeEj
000000000010ff30 T _ZNK12ICMPv6Header16getReachableTimeEv
000000000010ff40 T _ZN12ICMPv6Header22setRetransmissionTimerEj
000000000010ff50 T _ZNK12ICMPv6Header22getRetransmissionTimerEv
000000000010ff60 T _ZN12ICMPv6Header16setTargetAddressE8in6_addr
000000000010ffd0 T _ZNK12ICMPv6Header16getTargetAddressEv
0000000000110090 T _ZN12ICMPv6Header21setDestinationAddressE8in6_addr
00000000001100c0 T _ZNK12ICMPv6Header21getDestinationAddressEv
0000000000110130 T _ZN12ICMPv6Header16setSegmentNumberEh
0000000000110140 T _ZNK12ICMPv6Header16getSegmentNumberEv
0000000000110150 T _ZN12ICMPv6Header11setMaxDelayEt
00000000001101a0 T _ZNK12ICMPv6Header11getMaxDelayEv
00000000001101e0 T _ZN12ICMPv6Header8setQtypeEt
0000000000110200 T _ZNK12ICMPv6Header8getQtypeEv
0000000000110210 T _ZN12ICMPv6Header16setNodeInfoFlagsEt
0000000000110230 T _ZNK12ICMPv6Header16getNodeInfoFlagsEv
0000000000110240 T _ZN12ICMPv6Header4setGEb
0000000000110270 T _ZNK12ICMPv6Header4getGEv
0000000000110290 T _ZN12ICMPv6Header4setSEb
00000000001102c0 T _ZNK12ICMPv6Header4getSEv
00000000001102e0 T _ZN12ICMPv6Header4setLEb
0000000000110310 T _ZNK12ICMPv6Header4getLEv
0000000000110330 T _ZN12ICMPv6Header4setCEb
0000000000110360 T _ZNK12ICMPv6Header4getCEv
0000000000110380 T _ZN12ICMPv6Header4setAEb
00000000001103b0 T _ZNK12ICMPv6Header4getAEv
00000000001103d0 T _ZN12ICMPv6Header4setTEb
0000000000110400 T _ZNK12ICMPv6Header4getTEv
0000000000110420 T _ZN12ICMPv6Header8setNonceEm
0000000000110430 T _ZN12ICMPv6Header8setNonceEPKh
0000000000110460 T _ZNK12ICMPv6Header8getNonceEv
0000000000110470 T _ZN12ICMPv6Header19setMulticastAddressE8in6_addr
00000000001104a0 T _ZNK12ICMPv6Header19getMulticastAddressEv
0000000000110510 T _ZNK12ICMPv6Header23getHeaderLengthFromTypeEh
0000000000110530 T _ZNK12ICMPv6Header11type2stringEii
00000000001107a0 T _ZNK12ICMPv6Header5printEP8_IO_FILEi
0000000000110b90 w _ZN13PacketElement14getPrevElementEv
0000000000110ba0 w _ZNK13PacketElement5printEP8_IO_FILEi
0000000000110bd0 w _ZNK13PacketElement5printEv
0000000000110bf0 w _ZNK13PacketElement5printEi
0000000000110c10 w _ZNK13PacketElement15print_separatorEP8_IO_FILEi
0000000000110c20 w _ZN13PacketElement16getBufferPointerEv
0000000000110c30 T _ZN10IPv4HeaderD1Ev
0000000000110c40 T _ZN10IPv4Header16getBufferPointerEv
0000000000110c50 T _ZNK10IPv4Header11protocol_idEv
0000000000110c60 T _ZNK10IPv4Header13getNextHeaderEv
0000000000110c70 T _ZN10IPv4Header13setNextHeaderEh
0000000000110c80 T _ZNK10IPv4Header21getDestinationAddressEv
0000000000110c90 T _ZNK10IPv4Header16getSourceAddressEv
0000000000110ca0 T _ZNK10IPv4Header16getAddressLengthEv
0000000000110cb0 T _ZN10IPv4HeaderD0Ev
0000000000110cc0 T _ZNK10IPv4Header5printEP8_IO_FILEi
00000000001111d0 T _ZN10IPv4Header8validateEv
0000000000111210 T _ZN10IPv4Header10setVersionEv
0000000000111230 T _ZNK10IPv4Header10getVersionEv
0000000000111240 T _ZN10IPv4Header15setHeaderLengthEv
0000000000111270 T _ZN10IPv4Header15setHeaderLengthEh
0000000000111290 T _ZNK10IPv4Header15getHeaderLengthEv
00000000001112a0 T _ZN10IPv4Header6setTOSEh
00000000001112b0 T _ZNK10IPv4Header6getTOSEv
00000000001112c0 T _ZN10IPv4Header14setTotalLengthEv
0000000000111320 T _ZN10IPv4Header5resetEv
0000000000111380 T _ZN10IPv4HeaderC2Ev
00000000001113a0 T _ZN10IPv4Header13storeRecvDataEPKhm
0000000000111410 T _ZN10IPv4Header14setTotalLengthEt
0000000000111420 T _ZNK10IPv4Header14getTotalLengthEv
0000000000111430 T _ZN10IPv4Header17setIdentificationEv
0000000000111450 T _ZN10IPv4Header17setIdentificationEt
0000000000111460 T _ZNK10IPv4Header17getIdentificationEv
0000000000111470 T _ZN10IPv4Header13setFragOffsetEv
0000000000111490 T _ZN10IPv4Header13setFragOffsetEt
00000000001114a0 T _ZNK10IPv4Header13getFragOffsetEv
00000000001114b0 T _ZN10IPv4Header5setRFEv
00000000001114c0 T _ZN10IPv4Header7unsetRFEv
00000000001114d0 T _ZNK10IPv4Header5getRFEv
00000000001114e0 T _ZN10IPv4Header5setMFEv
00000000001114f0 T _ZN10IPv4Header7unsetMFEv
0000000000111500 T _ZNK10IPv4Header5getMFEv
0000000000111510 T _ZN10IPv4Header5setDFEv
0000000000111520 T _ZN10IPv4Header7unsetDFEv
0000000000111530 T _ZNK10IPv4Header5getDFEv
0000000000111540 T _ZN10IPv4Header6setTTLEv
0000000000111550 T _ZN10IPv4Header6setTTLEh
0000000000111560 T _ZNK10IPv4Header6getTTLEv
0000000000111570 T _ZN10IPv4Header12setNextProtoEh
0000000000111580 T _ZN10IPv4Header12setNextProtoEPKc
0000000000111610 T _ZN10IPv4Header6setSumEv
0000000000111640 T _ZN10IPv4Header6setSumEt
0000000000111650 T _ZN10IPv4Header12setSumRandomEv
0000000000111670 T _ZNK10IPv4Header6getSumEv
0000000000111680 T _ZN10IPv4Header21setDestinationAddressEj
0000000000111690 T _ZN10IPv4Header21setDestinationAddressE7in_addr
00000000001116a0 T _ZNK10IPv4Header21getDestinationAddressEP7in_addr
00000000001116b0 T _ZN10IPv4Header16setSourceAddressEj
00000000001116c0 T _ZN10IPv4Header16setSourceAddressE7in_addr
00000000001116d0 T _ZNK10IPv4Header16getSourceAddressEP7in_addr
00000000001116e0 T _ZN10IPv4Header7setOptsEPhj
00000000001117d0 T _ZN10IPv4Header7setOptsEPKc
00000000001118a0 T _ZNK10IPv4Header7getOptsEv
00000000001118b0 T _ZNK10IPv4Header7getOptsEPi
00000000001118e0 T _ZNK10IPv4Header12printOptionsEv
0000000000111910 T _ZNK10IPv4Header16getOptionsStringEv
0000000000111920 w _ZNK19NetworkLayerElement16getAddressLengthEv
0000000000111930 w _ZNK19NetworkLayerElement16getSourceAddressEv
0000000000111940 w _ZNK19NetworkLayerElement21getDestinationAddressEv
0000000000111950 w _ZN19NetworkLayerElement13setNextHeaderEh
0000000000111960 w _ZNK19NetworkLayerElement13getNextHeaderEv
0000000000111970 T _ZN10IPv6HeaderD2Ev
0000000000111980 T _ZN10IPv6Header16getBufferPointerEv
0000000000111990 T _ZNK10IPv6Header11protocol_idEv
00000000001119a0 T _ZN10IPv6Header13setNextHeaderEh
00000000001119b0 T _ZNK10IPv6Header13getNextHeaderEv
00000000001119c0 T _ZNK10IPv6Header16getSourceAddressEv
00000000001119d0 T _ZNK10IPv6Header21getDestinationAddressEv
00000000001119e0 T _ZNK10IPv6Header16getAddressLengthEv
00000000001119f0 T _ZN10IPv6HeaderD0Ev
0000000000111a00 T _ZN10IPv6Header5resetEv
0000000000111a70 T _ZN10IPv6HeaderC2Ev
0000000000111a90 T _ZN10IPv6Header13storeRecvDataEPKhm
0000000000111af0 T _ZN10IPv6Header8validateEv
0000000000111b00 T _ZN10IPv6Header10setVersionEh
0000000000111b20 T _ZN10IPv6Header10setVersionEv
0000000000111b30 T _ZNK10IPv6Header10getVersionEv
0000000000111b40 T _ZN10IPv6Header15setTrafficClassEh
0000000000111b70 T _ZNK10IPv6Header15getTrafficClassEv
0000000000111b90 T _ZN10IPv6Header12setFlowLabelEj
0000000000111bf0 T _ZNK10IPv6Header12getFlowLabelEv
0000000000111c50 T _ZN10IPv6Header16setPayloadLengthEt
0000000000111c60 T _ZN10IPv6Header16setPayloadLengthEv
0000000000111cb0 T _ZNK10IPv6Header16getPayloadLengthEv
0000000000111cc0 T _ZN10IPv6Header13setNextHeaderEPKc
0000000000111dd0 T _ZN10IPv6Header11setHopLimitEh
0000000000111de0 T _ZNK10IPv6Header11getHopLimitEv
0000000000111df0 T _ZN10IPv6Header16setSourceAddressEPh
0000000000111e20 T _ZN10IPv6Header16setSourceAddressE8in6_addr
0000000000111e30 T _ZNK10IPv6Header16getSourceAddressEP8in6_addr
0000000000111e80 T _ZN10IPv6Header21setDestinationAddressEPh
0000000000111eb0 T _ZN10IPv6Header21setDestinationAddressE8in6_addr
0000000000111ec0 T _ZNK10IPv6Header21getDestinationAddressEP8in6_addr
0000000000111f10 T _ZNK10IPv6Header5printEP8_IO_FILEi
00000000001121e0 T _ZN9TCPHeaderD1Ev
00000000001121f0 T _ZN9TCPHeader16getBufferPointerEv
0000000000112200 T _ZNK9TCPHeader11protocol_idEv
0000000000112210 T _ZN9TCPHeader6setSumEt
0000000000112220 T _ZN9TCPHeaderD0Ev
0000000000112230 T _ZN9TCPHeader13setSourcePortEt
0000000000112240 T _ZNK9TCPHeader13getSourcePortEv
0000000000112250 T _ZN9TCPHeader18setDestinationPortEt
0000000000112260 T _ZNK9TCPHeader18getDestinationPortEv
0000000000112270 T _ZN9TCPHeader5resetEv
0000000000112350 T _ZN9TCPHeaderC2Ev
0000000000112370 T _ZN9TCPHeader13storeRecvDataEPKhm
00000000001123f0 T _ZN9TCPHeader8validateEv
0000000000112420 T _ZNK9TCPHeader18__tcppacketoptinfoEPKhiPci
0000000000112790 T _ZNK9TCPHeader5printEP8_IO_FILEi
0000000000112b00 T _ZN9TCPHeader6setSeqEj
0000000000112b10 T _ZNK9TCPHeader6getSeqEv
0000000000112b20 T _ZN9TCPHeader6setAckEj
0000000000112b30 T _ZNK9TCPHeader6getAckEv
0000000000112b40 T _ZN9TCPHeader9setOffsetEh
0000000000112b60 T _ZN9TCPHeader9setOffsetEv
0000000000112b90 T _ZNK9TCPHeader9getOffsetEv
0000000000112ba0 T _ZN9TCPHeader11setReservedEh
0000000000112bc0 T _ZNK9TCPHeader11getReservedEv
0000000000112bd0 T _ZN9TCPHeader8setFlagsEh
0000000000112be0 T _ZNK9TCPHeader8getFlagsEv
0000000000112bf0 T _ZNK9TCPHeader10getFlags16Ev
0000000000112c00 T _ZN9TCPHeader6setCWREv
0000000000112c10 T _ZN9TCPHeader8unsetCWREv
0000000000112c20 T _ZNK9TCPHeader6getCWREv
0000000000112c30 T _ZNK9TCPHeader6getECEEv
0000000000112c40 T _ZN9TCPHeader6setECNEv
0000000000112c60 T _ZN9TCPHeader6setECEEv
0000000000112c70 T _ZN9TCPHeader8unsetECNEv
0000000000112c90 T _ZN9TCPHeader8unsetECEEv
0000000000112ca0 T _ZNK9TCPHeader6getECNEv
0000000000112cb0 T _ZN9TCPHeader6setURGEv
0000000000112cd0 T _ZN9TCPHeader8unsetURGEv
0000000000112cf0 T _ZNK9TCPHeader6getURGEv
0000000000112d00 T _ZN9TCPHeader6setACKEv
0000000000112d20 T _ZN9TCPHeader8unsetACKEv
0000000000112d40 T _ZNK9TCPHeader6getACKEv
0000000000112d50 T _ZN9TCPHeader6setPSHEv
0000000000112d70 T _ZN9TCPHeader8unsetPSHEv
0000000000112d90 T _ZNK9TCPHeader6getPSHEv
0000000000112da0 T _ZN9TCPHeader6setRSTEv
0000000000112dc0 T _ZN9TCPHeader8unsetRSTEv
0000000000112de0 T _ZNK9TCPHeader6getRSTEv
0000000000112df0 T _ZN9TCPHeader6setSYNEv
0000000000112e10 T _ZN9TCPHeader8unsetSYNEv
0000000000112e30 T _ZNK9TCPHeader6getSYNEv
0000000000112e40 T _ZN9TCPHeader6setFINEv
0000000000112e50 T _ZN9TCPHeader8unsetFINEv
0000000000112e60 T _ZNK9TCPHeader6getFINEv
0000000000112e70 T _ZN9TCPHeader9setWindowEt
0000000000112e80 T _ZNK9TCPHeader9getWindowEv
0000000000112e90 T _ZN9TCPHeader13setUrgPointerEt
0000000000112ea0 T _ZNK9TCPHeader13getUrgPointerEv
0000000000112eb0 T _ZN9TCPHeader6setSumE7in_addrS0_
00000000001134b0 T _ZN9TCPHeader6setSumEv
00000000001134d0 T _ZN9TCPHeader12setSumRandomEv
00000000001134f0 T _ZN9TCPHeader12setSumRandomE7in_addrS0_
0000000000113520 T _ZNK9TCPHeader6getSumEv
0000000000113530 T _ZN9TCPHeader10setOptionsEPKhm
00000000001135f0 T _ZNK9TCPHeader10getOptionsEPm
0000000000113610 T _ZNK9TCPHeader9getOptionEj
00000000001136c0 T _ZN9TCPHeader11optcode2strEh
00000000001136e0 T _ZN9UDPHeaderD2Ev
00000000001136f0 T _ZN9UDPHeader16getBufferPointerEv
0000000000113700 T _ZNK9UDPHeader11protocol_idEv
0000000000113710 T _ZN9UDPHeader6setSumEt
0000000000113720 T _ZN9UDPHeaderD0Ev
0000000000113730 T _ZN9UDPHeader13setSourcePortEt
0000000000113740 T _ZNK9UDPHeader13getSourcePortEv
0000000000113750 T _ZN9UDPHeader18setDestinationPortEt
0000000000113760 T _ZNK9UDPHeader18getDestinationPortEv
0000000000113770 T _ZNK9UDPHeader5printEP8_IO_FILEi
00000000001138e0 T _ZN9UDPHeader5resetEv
0000000000113980 T _ZN9UDPHeaderC2Ev
00000000001139a0 T _ZN9UDPHeader13storeRecvDataEPKhm
00000000001139e0 T _ZN9UDPHeader8validateEv
00000000001139f0 T _ZN9UDPHeader6setSumE7in_addrS0_
0000000000113ff0 T _ZN9UDPHeader6setSumEv
0000000000114010 T _ZN9UDPHeader12setSumRandomEv
0000000000114040 T _ZN9UDPHeader12setSumRandomE7in_addrS0_
0000000000114090 T _ZNK9UDPHeader6getSumEv
00000000001140a0 T _ZN9UDPHeader14setTotalLengthEv
0000000000114110 T _ZN9UDPHeader14setTotalLengthEt
0000000000114120 T _ZNK9UDPHeader14getTotalLengthEv
0000000000114130 T _ZN7RawData16getBufferPointerEv
0000000000114140 T _ZNK7RawData11protocol_idEv
0000000000114150 T _ZN7RawDataD1Ev
0000000000114170 T _ZN7RawDataD0Ev
00000000001141a0 T _ZNK7RawData5printEP8_IO_FILEi
0000000000114240 T _ZN7RawDataC2Ev
0000000000114270 T _ZN7RawData5resetEv
0000000000114280 T _ZN7RawData16getBufferPointerEPi
0000000000114290 T _ZN7RawData8validateEv
00000000001142a0 T _ZN7RawData5storeEPKhm
0000000000114310 T _ZN7RawData13storeRecvDataEPKhm
0000000000114320 T _ZN7RawData5storeEPKc
0000000000114360 T _ZN14HopByHopHeaderD2Ev
0000000000114370 T _ZN14HopByHopHeader16getBufferPointerEv
0000000000114380 T _ZNK14HopByHopHeader11protocol_idEv
0000000000114390 T _ZN14HopByHopHeaderD0Ev
00000000001143a0 T _ZNK14HopByHopHeader5printEP8_IO_FILEi
0000000000114420 T _ZN14HopByHopHeader8validateEv
00000000001145c0 T _ZN14HopByHopHeader13setNextHeaderEh
00000000001145d0 T _ZN14HopByHopHeader13getNextHeaderEv
00000000001145e0 T _ZN14HopByHopHeader10addPaddingEv
00000000001146d0 T _ZN14HopByHopHeader9addOptionEhhPKh
00000000001147c0 T _ZN14HopByHopHeader5resetEv
0000000000114820 T _ZN14HopByHopHeaderC2Ev
0000000000114840 T _ZN14HopByHopHeader13storeRecvDataEPKhm
00000000001148f0 T _ZNK14DestOptsHeader11protocol_idEv
0000000000114900 T _ZN14DestOptsHeaderD1Ev
0000000000114910 T _ZN14DestOptsHeaderD0Ev
0000000000114930 T _ZNK14DestOptsHeader5printEP8_IO_FILEi
00000000001149b0 T _ZN14DestOptsHeaderC2Ev
00000000001149f0 T _ZN13RoutingHeaderD2Ev
0000000000114a00 T _ZN13RoutingHeader16getBufferPointerEv
0000000000114a10 T _ZNK13RoutingHeader11protocol_idEv
0000000000114a20 T _ZN13RoutingHeaderD0Ev
0000000000114a30 T _ZNK13RoutingHeader5printEP8_IO_FILEi
0000000000114ac0 T _ZN13RoutingHeaderC1Ev
0000000000114b20 T _ZN13RoutingHeader5resetEv
0000000000114b70 T _ZN13RoutingHeader13storeRecvDataEPKhm
0000000000114d30 T _ZN13RoutingHeader8validateEv
0000000000114dc0 T _ZN13RoutingHeader13setNextHeaderEh
0000000000114dd0 T _ZN13RoutingHeader13getNextHeaderEv
0000000000114de0 T _ZN13RoutingHeader14setRoutingTypeEh
0000000000114df0 T _ZN13RoutingHeader14getRoutingTypeEv
0000000000114e00 T _ZN13RoutingHeader15setSegmentsLeftEh
0000000000114e10 T _ZN13RoutingHeader15getSegmentsLeftEv
0000000000114e20 T _ZN13RoutingHeader10addAddressE8in6_addr
0000000000114e50 T _ZN12PacketParserC1Ev
0000000000114e60 T _ZN12PacketParserD1Ev
0000000000114e70 T _ZN12PacketParser5resetEv
0000000000114e80 T _ZN12PacketParser18header_type2stringEi
0000000000114f00 T _ZN12PacketParser15freePacketChainEP13PacketElement
0000000000114f60 T _ZN12PacketParser11is_responseEP13PacketElementS1_
0000000000115e20 T _ZN12PacketParser20find_transport_layerEP13PacketElement
0000000000115ef0 T _ZN12PacketParser12parse_packetEPKhmb
0000000000116a80 T _ZN12PacketParser23dummy_print_packet_typeEPKhmb
0000000000116ad0 T _ZN12PacketParser5splitEPKhmb
0000000000116f40 T _ZN12PacketParser18dummy_print_packetEPKhmb
0000000000116fd0 T _ZN12PacketParser14payload_offsetEPKhmb
0000000000117100 T _ZN12PacketParser5splitEPKhm
0000000000117110 T _ZN12PacketParser18test_packet_parserEP13PacketElement
0000000000117dc0 T _ZN13PacketElementC1Ev
0000000000117de0 T _ZN21TransportLayerElement16compute_checksumEv
00000000001188e0 T _ZN9ARPHeaderD2Ev
00000000001188f0 T _ZN9ARPHeader16getBufferPointerEv
0000000000118900 T _ZNK9ARPHeader11protocol_idEv
0000000000118910 T _ZN9ARPHeaderD0Ev
0000000000118920 T _ZNK9ARPHeader5printEP8_IO_FILEi
0000000000118990 T _ZN9ARPHeaderC1Ev
00000000001189d0 T _ZN9ARPHeader5resetEv
0000000000118a00 T _ZN9ARPHeader13storeRecvDataEPKhm
0000000000118a60 T _ZN9ARPHeader8validateEv
0000000000118a70 T _ZN9ARPHeader15setHardwareTypeEt
0000000000118a80 T _ZN9ARPHeader15setHardwareTypeEv
0000000000118a90 T _ZN9ARPHeader15getHardwareTypeEv
0000000000118aa0 T _ZN9ARPHeader15setProtocolTypeEt
0000000000118ab0 T _ZN9ARPHeader15setProtocolTypeEv
0000000000118ac0 T _ZN9ARPHeader15getProtocolTypeEv
0000000000118ad0 T _ZN9ARPHeader12setHwAddrLenEh
0000000000118ae0 T _ZN9ARPHeader12setHwAddrLenEv
0000000000118af0 T _ZN9ARPHeader12getHwAddrLenEv
0000000000118b00 T _ZN9ARPHeader15setProtoAddrLenEh
0000000000118b10 T _ZN9ARPHeader15setProtoAddrLenEv
0000000000118b20 T _ZN9ARPHeader15getProtoAddrLenEv
0000000000118b30 T _ZN9ARPHeader9setOpCodeEt
0000000000118b40 T _ZN9ARPHeader9getOpCodeEv
0000000000118b50 T _ZN9ARPHeader12setSenderMACEPKh
0000000000118b70 T _ZN9ARPHeader12getSenderMACEv
0000000000118b80 T _ZN9ARPHeader11setSenderIPE7in_addr
0000000000118b90 T _ZN9ARPHeader11getSenderIPEv
0000000000118ba0 T _ZN9ARPHeader12setTargetMACEPh
0000000000118bc0 T _ZN9ARPHeader12getTargetMACEv
0000000000118bd0 T _ZN9ARPHeader11setTargetIPE7in_addr
0000000000118be0 T _ZN9ARPHeader11getTargetIPEv
0000000000118bf0 T _ZN14EthernetHeaderD1Ev
0000000000118c00 T _ZN14EthernetHeader16getBufferPointerEv
0000000000118c10 T _ZNK14EthernetHeader11protocol_idEv
0000000000118c20 T _ZN14EthernetHeaderD0Ev
0000000000118c30 T _ZNK14EthernetHeader5printEP8_IO_FILEi
0000000000118db0 T _ZN14EthernetHeaderC2Ev
0000000000118de0 T _ZN14EthernetHeader5resetEv
0000000000118e00 T _ZN14EthernetHeader13storeRecvDataEPKhm
0000000000118e50 T _ZN14EthernetHeader8validateEv
0000000000118e60 T _ZN14EthernetHeader9setSrcMACEPKh
0000000000118e90 T _ZNK14EthernetHeader9getSrcMACEv
0000000000118ea0 T _ZN14EthernetHeader9setDstMACEPh
0000000000118ed0 T _ZNK14EthernetHeader9getDstMACEv
0000000000118ee0 T _ZN14EthernetHeader12setEtherTypeEt
0000000000118ef0 T _ZNK14EthernetHeader12getEtherTypeEv
0000000000118f00 T _ZN12ICMPv4HeaderD2Ev
0000000000118f10 T _ZN12ICMPv4Header16getBufferPointerEv
0000000000118f20 T _ZNK12ICMPv4Header11protocol_idEv
0000000000118f30 T _ZN12ICMPv4Header7setTypeEh
0000000000118f60 T _ZNK12ICMPv4Header7getTypeEv
0000000000118f70 T _ZN12ICMPv4Header7setCodeEh
0000000000118f80 T _ZNK12ICMPv4Header7getCodeEv
0000000000118f90 T _ZN12ICMPv4HeaderD0Ev
0000000000118fa0 T _ZNK12ICMPv4Header7isErrorEv
0000000000118ff0 T _ZN12ICMPv4Header5resetEv
00000000001190b0 T _ZN12ICMPv4HeaderC2Ev
00000000001190d0 T _ZN12ICMPv4Header13storeRecvDataEPKhm
0000000000119140 T _ZN12ICMPv4Header8validateEv
0000000000119190 T _ZN12ICMPv4Header12validateTypeEh
00000000001191c0 T _ZN12ICMPv4Header12validateTypeEv
00000000001191f0 T _ZN12ICMPv4Header12validateCodeEhh
0000000000119270 T _ZN12ICMPv4Header6setSumEv
0000000000119900 T _ZN12ICMPv4Header6setSumEt
0000000000119910 T _ZNK12ICMPv4Header6getSumEv
0000000000119920 T _ZN12ICMPv4Header11setReservedEj
0000000000119a40 T _ZNK12ICMPv4Header11getReservedEv
0000000000119b50 T _ZN12ICMPv4Header9setUnusedEj
0000000000119b60 T _ZNK12ICMPv4Header9getUnusedEv
0000000000119b70 T _ZN12ICMPv4Header17setGatewayAddressE7in_addr
0000000000119b80 T _ZNK12ICMPv4Header17getGatewayAddressEv
0000000000119b90 T _ZN12ICMPv4Header19setParameterPointerEh
0000000000119ba0 T _ZNK12ICMPv4Header19getParameterPointerEv
0000000000119bb0 T _ZN12ICMPv4Header15setNumAddressesEh
0000000000119bc0 T _ZNK12ICMPv4Header15getNumAddressesEv
0000000000119bd0 T _ZN12ICMPv4Header16setAddrEntrySizeEh
0000000000119be0 T _ZNK12ICMPv4Header16getAddrEntrySizeEv
0000000000119bf0 T _ZN12ICMPv4Header11setLifetimeEt
0000000000119c10 T _ZNK12ICMPv4Header11getLifetimeEv
0000000000119c20 T _ZN12ICMPv4Header17addRouterAdvEntryE7in_addrj
0000000000119c80 T _ZNK12ICMPv4Header19getRouterAdvEntriesEPi
0000000000119cb0 T _ZN12ICMPv4Header13setIdentifierEt
0000000000119d60 T _ZNK12ICMPv4Header13getIdentifierEv
0000000000119df0 T _ZN12ICMPv4Header11setSequenceEt
0000000000119ea0 T _ZNK12ICMPv4Header11getSequenceEv
0000000000119f30 T _ZN12ICMPv4Header21setOriginateTimestampEj
0000000000119f40 T _ZNK12ICMPv4Header21getOriginateTimestampEv
0000000000119f50 T _ZN12ICMPv4Header19setReceiveTimestampEj
0000000000119f60 T _ZNK12ICMPv4Header19getReceiveTimestampEv
0000000000119f70 T _ZN12ICMPv4Header20setTransmitTimestampEj
0000000000119f80 T _ZNK12ICMPv4Header20getTransmitTimestampEv
0000000000119f90 T _ZN12ICMPv4Header14setAddressMaskE7in_addr
0000000000119fa0 T _ZNK12ICMPv4Header14getAddressMaskEv
0000000000119fb0 T _ZN12ICMPv4Header18setSecurityPointerEt
0000000000119fd0 T _ZNK12ICMPv4Header18getSecurityPointerEv
0000000000119fe0 T _ZN12ICMPv4Header11setIDNumberEt
000000000011a000 T _ZNK12ICMPv4Header11getIDNumberEv
000000000011a010 T _ZN12ICMPv4Header19setOutboundHopCountEt
000000000011a030 T _ZNK12ICMPv4Header19getOutboundHopCountEv
000000000011a040 T _ZN12ICMPv4Header17setReturnHopCountEt
000000000011a060 T _ZNK12ICMPv4Header17getReturnHopCountEv
000000000011a070 T _ZN12ICMPv4Header18setOutputLinkSpeedEj
000000000011a080 T _ZNK12ICMPv4Header18getOutputLinkSpeedEv
000000000011a090 T _ZN12ICMPv4Header16setOutputLinkMTUEj
000000000011a0a0 T _ZNK12ICMPv4Header16getOutputLinkMTUEv
000000000011a0b0 T _ZNK12ICMPv4Header27getICMPHeaderLengthFromTypeEh
000000000011a0d0 T _ZNK12ICMPv4Header11type2stringEii
000000000011a240 T _ZNK12ICMPv4Header5printEP8_IO_FILEi
000000000011a740 T _ZN14FragmentHeaderD2Ev
000000000011a750 T _ZN14FragmentHeader16getBufferPointerEv
000000000011a760 T _ZNK14FragmentHeader11protocol_idEv
000000000011a770 T _ZN14FragmentHeaderD0Ev
000000000011a780 T _ZNK14FragmentHeader5printEP8_IO_FILEi
000000000011a800 T _ZN14FragmentHeaderC2Ev
000000000011a830 T _ZN14FragmentHeader5resetEv
000000000011a840 T _ZN14FragmentHeader13storeRecvDataEPKhm
000000000011a880 T _ZN14FragmentHeader8validateEv
000000000011a890 T _ZN14FragmentHeader13setNextHeaderEh
000000000011a8a0 T _ZN14FragmentHeader13getNextHeaderEv
000000000011a8b0 T _ZN14FragmentHeader9setOffsetEt
000000000011a8d0 T _ZN14FragmentHeader9getOffsetEv
000000000011a8f0 T _ZN14FragmentHeader4setMEb
000000000011a910 T _ZN14FragmentHeader4getMEv
000000000011a920 T _ZN14FragmentHeader17setIdentificationEj
000000000011a930 T _ZN14FragmentHeader17getIdentificationEv
000000000011a940 t ip_ntop.part.0
000000000011a9a0 T eth_ntop
000000000011aa10 T eth_ntoa
000000000011aa40 T eth_pton
000000000011aac0 T ip_ntop
000000000011aad0 T ip_ntoa
000000000011aaf0 T ip_pton
000000000011ab70 T ip6_ntop
000000000011ad60 T ip6_ntoa
000000000011ad90 T ip6_pton
000000000011af80 T addr_cmp
000000000011b030 T addr_ntop
000000000011b100 T addr_ntoa
000000000011b170 T addr_ntos
000000000011b240 T addr_ston
000000000011b2f0 T addr_stob
000000000011b360 T addr_btom
000000000011b490 T addr_net
000000000011b5e0 T addr_bcast
000000000011b670 T addr_btos
000000000011b710 T addr_mtob
000000000011b7a0 T addr_pton
000000000011b940 T ip_add_option
000000000011bb10 T ip_cksum_add
000000000011bc80 T ip_checksum
000000000011be60 T ip6_checksum
000000000011c010 t _arp_set_dev
000000000011c090 T arp_add
000000000011c140 T arp_delete
000000000011c1a0 T arp_get
000000000011c240 T arp_loop
000000000011c370 T arp_close
000000000011c3c0 T arp_open
000000000011c420 T eth_send
000000000011c440 T eth_close
000000000011c480 T eth_open
000000000011c550 T eth_get
000000000011c5b0 T eth_set
000000000011c600 t _intf_get_aliases
000000000011c960 t _intf_get_noalias.isra.3
000000000011cb70 t _match_intf_src
000000000011cc00 T intf_get
000000000011cc60 T intf_set
000000000011d0f0 T intf_get_index
000000000011d140 T intf_loop
000000000011d2b0 T intf_get_src
000000000011d300 T intf_get_dst
000000000011d3b0 T intf_close
000000000011d410 T intf_open
000000000011d4a0 T route_add
000000000011d580 T route_delete
000000000011d650 T route_get
000000000011dae0 T route_loop
000000000011def0 T route_close
000000000011df50 T route_open
000000000011e000 T strlcpy
000000000011e050 t index2addr
000000000011e0f0 t growstack
000000000011e110 t auxgetstr
000000000011e1b0 t auxsetstr
000000000011e290 t f_call
000000000011e2b0 T lua_checkstack
000000000011e360 T lua_xmove
000000000011e3d0 T lua_atpanic
000000000011e3f0 T lua_version
000000000011e410 T lua_absindex
000000000011e440 T lua_gettop
000000000011e470 T lua_settop
000000000011e4e0 T lua_rotate
000000000011e5b0 T lua_copy
000000000011e630 T lua_pushvalue
000000000011e660 T lua_type
000000000011e690 T lua_typename
000000000011e6b0 T lua_iscfunction
000000000011e6e0 T lua_isinteger
000000000011e700 T lua_isnumber
000000000011e730 T lua_isstring
000000000011e760 T lua_isuserdata
000000000011e790 T lua_rawequal
000000000011e800 T lua_arith
000000000011e850 T lua_compare
000000000011e910 T lua_stringtonumber
000000000011e940 T lua_tonumberx
000000000011e9a0 T lua_tointegerx
000000000011ea00 T lua_toboolean
000000000011ea40 T lua_tolstring
000000000011eaf0 T lua_rawlen
000000000011eb60 T lua_tocfunction
000000000011eba0 T lua_touserdata
000000000011ebe0 T lua_tothread
000000000011ec10 T lua_topointer
000000000011ec50 T lua_pushnil
000000000011ec70 T lua_pushnumber
000000000011eca0 T lua_pushinteger
000000000011ecd0 T lua_pushlstring
000000000011ed40 T lua_pushstring
000000000011edb0 T lua_pushvfstring
000000000011edf0 T lua_pushfstring
000000000011eeb0 T lua_pushcclosure
000000000011ef80 T lua_pushboolean
000000000011efb0 T lua_pushlightuserdata
000000000011efe0 T lua_pushthread
000000000011f020 T lua_getglobal
000000000011f060 T lua_gettable
000000000011f0f0 T lua_getfield
000000000011f120 T lua_geti
000000000011f1c0 T lua_rawget
000000000011f200 T lua_rawgeti
000000000011f260 T lua_rawgetp
000000000011f2c0 T lua_createtable
000000000011f350 T lua_getmetatable
000000000011f3d0 T lua_getuservalue
000000000011f410 T lua_setglobal
000000000011f450 T lua_settable
000000000011f510 T lua_setfield
000000000011f540 T lua_seti
000000000011f610 T lua_rawset
000000000011f6a0 T lua_rawseti
000000000011f720 T lua_rawsetp
000000000011f7b0 T lua_setmetatable
000000000011f8c0 T lua_setuservalue
000000000011f930 T lua_callk
000000000011f9c0 T lua_pcallk
000000000011faf0 T lua_load
000000000011fba0 T lua_dump
000000000011fbe0 T lua_status
000000000011fbf0 T lua_gc
000000000011fd90 T lua_error
000000000011fda0 T lua_next
000000000011fdf0 T lua_concat
000000000011fe60 T lua_len
000000000011fea0 T lua_getallocf
000000000011fed0 T lua_setallocf
000000000011fef0 T lua_newuserdata
000000000011ff40 T lua_getupvalue
0000000000120000 T lua_setupvalue
0000000000120130 T lua_upvalueid
00000000001201a0 T lua_upvaluejoin
0000000000120260 t findlocal
0000000000120370 t swapextra.part.1
00000000001203a0 t getobjname
00000000001206a0 t kname
0000000000120710 t varinfo
0000000000120810 T lua_sethook
0000000000120860 T lua_gethook
0000000000120880 T lua_gethookmask
00000000001208a0 T lua_gethookcount
00000000001208c0 T lua_getstack
0000000000120920 T lua_getlocal
00000000001209f0 T lua_setlocal
0000000000120a90 T lua_getinfo
0000000000120f90 t luaG_addinfo
0000000000121000 t luaG_errormsg
0000000000121060 t luaG_runerror
0000000000121150 t luaG_typeerror
00000000001211a0 t luaG_concaterror
00000000001211d0 t luaG_opinterror
0000000000121230 t luaG_tointerror
0000000000121290 t luaG_ordererror
0000000000121300 t luaG_traceexec
0000000000121470 t seterrorobj
00000000001214f0 t luaD_throw
0000000000121590 t checkmode
00000000001215f0 t f_parser
00000000001216a0 t luaD_rawrunprotected
0000000000121740 t luaD_reallocstack
0000000000121870 t luaD_growstack
0000000000121900 t luaD_shrinkstack
00000000001219b0 t luaD_inctop
00000000001219f0 t luaD_hook
0000000000121ad0 t luaD_poscall
0000000000121cb0 t luaD_precall
0000000000122110 t finishCcall
0000000000122190 t unroll
0000000000122200 t resume
0000000000122310 t luaD_call
0000000000122390 t luaD_callnoyield
00000000001223c0 T lua_resume
0000000000122540 T lua_isyieldable
0000000000122560 T lua_yieldk
00000000001225f0 t luaD_pcall
00000000001226a0 t luaD_protectedparser
00000000001227a0 t DumpBlock.part.0
00000000001227d0 t DumpString
00000000001228f0 t DumpFunction
0000000000122f10 t luaU_dump
0000000000123110 t luaF_newCclosure
0000000000123140 t luaF_newLclosure
00000000001231b0 t luaF_initupvals
0000000000123220 t luaF_findupval
00000000001232d0 t luaF_close
0000000000123350 t luaF_newproto
00000000001233e0 t luaF_freeproto
0000000000123490 t luaF_getlocalname
00000000001234f0 t reallymarkobject
0000000000123640 t markmt
00000000001236a0 t markbeingfnz
00000000001236f0 t GCTM
0000000000123840 t runafewfinalizers
00000000001238f0 t dothecall
0000000000123910 t setpause
0000000000123980 t removeentry.part.0
00000000001239a0 t iscleared.isra.1.part.2
00000000001239d0 t traverseephemeron
0000000000123bd0 t propagatemark
0000000000124350 t clearvalues
0000000000124490 t clearkeys.constprop.5
0000000000124560 t convergeephemerons.constprop.6
00000000001245e0 t sweeplist
00000000001247f0 t sweepstep
0000000000124860 t singlestep
0000000000124d90 t luaC_barrier_
0000000000124dd0 t luaC_barrierback_
0000000000124df0 t luaC_upvalbarrier_
0000000000124e20 t luaC_fix
0000000000124e50 t luaC_newobj
0000000000124ea0 t luaC_upvdeccount
0000000000124ed0 t luaC_checkfinalizer
0000000000124fc0 t luaC_freeallobjects
00000000001250b0 t luaC_runtilstate
0000000000125100 t luaC_step
0000000000125230 t luaC_fullgc
0000000000125360 t luaM_toobig
0000000000125380 t luaM_realloc_
0000000000125420 t luaM_growaux_
00000000001254a0 t intarith
0000000000125540 t l_str2dloc
00000000001255c0 t pushstr
0000000000125600 t numarith.isra.0
0000000000125720 t luaO_utf8esc.part.2
0000000000125780 t luaO_int2fb
00000000001257e0 t luaO_fb2int
0000000000125810 t luaO_ceillog2
0000000000125850 t luaO_arith
00000000001259f0 t luaO_hexavalue
0000000000125a20 t luaO_str2num
0000000000125d20 t luaO_utf8esc
0000000000125d50 t luaO_tostring
0000000000125e20 t luaO_pushfstring
0000000000125eb0 t luaO_pushvfstring
0000000000126240 t luaO_chunkid
00000000001263a0 t error_expected
00000000001263e0 t checknext
0000000000126400 t str_checkname
0000000000126440 t checkname
0000000000126480 t fieldsel
00000000001264e0 t adjustlocalvars.isra.0
0000000000126550 t newlabelentry.isra.4
00000000001265f0 t checklimit.part.8
0000000000126660 t new_localvar
00000000001267e0 t newupvalue.isra.9
0000000000126920 t singlevaraux
0000000000126ab0 t singlevar
0000000000126b40 t closegoto.isra.16
0000000000126c40 t findgotos
0000000000126cc0 t findlabel
0000000000126da0 t gotostat
0000000000126e30 t check_match
0000000000126eb0 t adjust_assign.isra.18
0000000000126f70 t leaveblock
0000000000127170 t close_func.isra.19
00000000001272d0 t statement
0000000000127d50 t statlist
0000000000127dc0 t body
00000000001280e0 t subexpr
0000000000128690 t yindex
00000000001286e0 t recfield.isra.20
00000000001287a0 t constructor
0000000000128a00 t explist
0000000000128a70 t funcargs
0000000000128bd0 t suffixedexp
0000000000128d40 t assignment
0000000000128f60 t cond
0000000000128fa0 t exp1
0000000000128fe0 t block
0000000000129040 t forbody
00000000001291a0 t test_then_block
0000000000129340 t luaY_parser
0000000000129570 t stack_init
0000000000129610 t f_luaopen
00000000001296e0 t luaE_setdebt
0000000000129720 t luaE_extendCI
0000000000129760 t luaE_freeCI
00000000001297b0 t freestack.part.0
00000000001297f0 t close_state
0000000000129860 T lua_newstate
0000000000129ae0 t luaE_shrinkCI
0000000000129b60 T lua_newthread
0000000000129cb0 t luaE_freethread
0000000000129d10 T lua_close
0000000000129d30 t luaS_eqlngstr
0000000000129d70 t luaS_hash
0000000000129dc0 t luaS_hashlongstr
0000000000129e20 t luaS_resize
0000000000129f40 t internshrstr
000000000012a0c0 t luaS_clearcache
000000000012a120 t luaS_init
000000000012a1a0 t luaS_createlngstrobj
000000000012a1e0 t luaS_remove
000000000012a230 t luaS_newlstr
000000000012a2a0 t luaS_new
000000000012a350 t luaS_newudata
000000000012a3b0 t countint
000000000012a400 t mainposition.isra.3
000000000012a580 t getgeneric
000000000012a5f0 t luaH_getint.part.6
000000000012a640 t luaH_next
000000000012a820 t luaH_new
000000000012a870 t luaH_free
000000000012a8e0 t luaH_getint
000000000012a910 t luaH_getshortstr
000000000012a970 t luaH_getstr
000000000012a9f0 t luaH_get
000000000012ab20 t luaH_setint
000000000012abb0 t luaH_resize
000000000012ae50 t luaH_resizearray
000000000012ae80 t luaH_newkey
000000000012b2a0 t luaH_set
000000000012b300 t luaH_getn
000000000012b460 t luaT_init
000000000012b4d0 t luaT_gettm
000000000012b520 t luaT_gettmbyobj
000000000012b590 t luaT_objtypename
000000000012b620 t luaT_callTM
000000000012b6e0 t luaT_callbinTM
000000000012b770 t luaT_trybinTM
000000000012b860 t luaT_callorderTM
000000000012b8c0 t LoadBlock
000000000012b900 t LoadString
000000000012b9d0 t checkliteral
000000000012ba40 t fchecksize
000000000012baa0 t LoadFunction
000000000012bfa0 t luaU_undump
000000000012c1a0 t l_strcmp
000000000012c260 t copy2buff
000000000012c2f0 t luaV_tonumber_
000000000012c3c0 t luaV_tointeger
000000000012c520 t luaV_finishget
000000000012c680 t luaV_finishset
000000000012c880 t luaV_lessthan
000000000012ca70 t luaV_lessequal
000000000012cca0 t luaV_equalobj
000000000012cf20 t luaV_concat
000000000012d200 t luaV_objlen
000000000012d320 t luaV_div
000000000012d380 t luaV_mod
000000000012d3d0 t luaV_shiftl
000000000012d410 t luaV_finishOp
000000000012d580 t luaV_execute
000000000012f6a0 t luaZ_fill
000000000012f700 t luaZ_init
000000000012f730 t luaZ_read
000000000012f7d0 t getS
000000000012f800 t findfield
000000000012f920 t pushglobalfuncname
000000000012fa20 t errfile
000000000012faa0 t getF
000000000012fb30 t panic
000000000012fb70 t l_alloc
000000000012fba0 t skipcomment
000000000012fc80 T luaL_where
000000000012fd10 T luaL_error
000000000012fde0 T luaL_argerror
000000000012ff00 t resizebox
000000000012ff90 t boxgc
000000000012ffb0 T luaL_fileresult
0000000000130060 T luaL_execresult
0000000000130110 T luaL_newmetatable
00000000001301a0 T luaL_setmetatable
00000000001301e0 T luaL_testudata
0000000000130270 T luaL_checkstack
00000000001302d0 T luaL_traceback
00000000001305e0 T luaL_checkany
0000000000130620 T luaL_prepbuffsize
0000000000130760 t luaL_addlstring.part.3
00000000001307a0 T luaL_addlstring
00000000001307c0 T luaL_addstring
0000000000130800 T luaL_pushresult
0000000000130870 T luaL_pushresultsize
0000000000130880 T luaL_addvalue
0000000000130930 T luaL_buffinit
0000000000130960 T luaL_buffinitsize
00000000001309a0 T luaL_ref
0000000000130a80 T luaL_unref
0000000000130af0 T luaL_loadfilex
0000000000130d80 T luaL_loadbufferx
0000000000130db0 T luaL_loadstring
0000000000130e00 T luaL_getmetafield
0000000000130ea0 t typeerror
0000000000130f40 T luaL_checkudata
0000000000130fa0 T luaL_checktype
0000000000131000 T luaL_checklstring
0000000000131070 T luaL_optlstring
00000000001310e0 T luaL_checkoption
0000000000131190 T luaL_checknumber
00000000001311f0 T luaL_optnumber
0000000000131240 T luaL_checkinteger
00000000001312e0 T luaL_optinteger
0000000000131330 T luaL_callmeta
00000000001313a0 T luaL_len
0000000000131400 T luaL_tolstring
0000000000131550 T luaL_setfuncs
0000000000131600 T luaL_getsubtable
0000000000131680 T luaL_requiref
0000000000131780 T luaL_gsub
0000000000131870 T luaL_newstate
00000000001318b0 T luaL_checkversion_
0000000000131960 T luaL_openlibs
00000000001319d0 t patchtestreg
0000000000131a70 t removevalues
0000000000131ad0 t need_value
0000000000131b50 t addk
0000000000131cf0 t tonumeral
0000000000131d50 t negatecondition.isra.8
0000000000131da0 t fixjump.isra.9
0000000000131e00 t patchlistaux
0000000000131eb0 t luaK_code
0000000000131fa0 t constfolding.isra.11
0000000000132140 t luaK_concat.part.12
00000000001321a0 t freeexp.isra.5.part.6
00000000001321d0 t freeexps.isra.7
0000000000132290 t luaK_nil
0000000000132350 t luaK_concat
0000000000132370 t luaK_jump
00000000001323c0 t luaK_ret
00000000001323e0 t luaK_getlabel
0000000000132400 t luaK_patchtohere
0000000000132430 t luaK_patchlist
0000000000132470 t luaK_patchclose
00000000001324d0 t luaK_codeABC
00000000001324f0 t luaK_codeABx
0000000000132510 t luaK_codek
0000000000132580 t luaK_checkstack
00000000001325c0 t luaK_reserveregs
0000000000132600 t luaK_stringK
0000000000132630 t luaK_intK
0000000000132670 t luaK_setreturns
0000000000132700 t luaK_setoneret
0000000000132770 t luaK_dischargevars
0000000000132850 t discharge2reg
00000000001329b0 t exp2reg
0000000000132b80 t jumponcond
0000000000132c50 t luaK_exp2nextreg
0000000000132cb0 t luaK_exp2anyreg
0000000000132d10 t luaK_exp2anyregup
0000000000132d40 t luaK_exp2val
0000000000132d70 t luaK_exp2RK
0000000000132e80 t codebinexpval
0000000000132f20 t luaK_storevar
0000000000133040 t luaK_self
00000000001330f0 t luaK_goiftrue
0000000000133180 t luaK_goiffalse
0000000000133210 t luaK_indexed
0000000000133250 t luaK_prefix
00000000001333f0 t luaK_infix
0000000000133480 t luaK_posfix
00000000001336d0 t luaK_fixline
00000000001336f0 t luaK_setlist
0000000000133780 t check_next1.isra.0.part.1
00000000001337e0 t luaX_init
0000000000133860 t luaX_token2str
00000000001338c0 t lexerror
0000000000133960 t save
00000000001339f0 t skip_sep
0000000000133ac0 t check_next2
0000000000133b40 t inclinenumber
0000000000133c00 t esccheck.part.4
0000000000133c70 t gethexa
0000000000133cf0 t read_numeral
0000000000133e70 t luaX_syntaxerror
0000000000133e90 t luaX_newstring
0000000000133f30 t read_long_string
0000000000134120 t llex
0000000000134d10 t luaX_setinput
0000000000134da0 t luaX_next
0000000000134df0 t luaX_lookahead
0000000000134e20 t dofilecont
0000000000134e40 t luaB_type
0000000000134ea0 t luaB_tostring
0000000000134ee0 t luaB_select
0000000000134f90 t luaB_tonumber
00000000001351c0 t luaB_rawset
0000000000135220 t luaB_rawget
0000000000135280 t luaB_rawlen
00000000001352e0 t luaB_rawequal
0000000000135330 t luaB_print
0000000000135470 t luaB_next
00000000001354d0 t generic_reader
00000000001355a0 t ipairsaux
00000000001355f0 t luaB_error
0000000000135680 t luaB_collectgarbage
0000000000135770 t luaB_xpcall
0000000000135820 t luaB_setmetatable
00000000001358d0 t pairsmeta
00000000001359a0 t luaB_pairs
00000000001359c0 t luaB_ipairs
00000000001359e0 t load_aux
0000000000135a60 t luaB_load
0000000000135b50 t luaB_loadfile
0000000000135bd0 t luaB_getmetatable
0000000000135c40 t luaB_dofile
0000000000135cc0 t luaB_assert
0000000000135d50 t finishpcall
0000000000135da0 t luaB_pcall
0000000000135e40 T luaopen_base
0000000000135ec0 t b_shift
0000000000135f20 t b_rshift
0000000000135f60 t b_lshift
0000000000135fa0 t b_rot
0000000000135ff0 t b_rrot
0000000000136020 t b_lrot
0000000000136050 t b_not
0000000000136090 t b_arshift
0000000000136110 t fieldargs
00000000001361d0 t b_replace
0000000000136260 t b_extract
00000000001362d0 t andaux
0000000000136330 t b_test
0000000000136370 t b_and
00000000001363a0 t b_xor
0000000000136410 t b_or
0000000000136480 T luaopen_bit32
00000000001364d0 t luaB_yieldable
0000000000136500 t luaB_yield
0000000000136530 t auxresume
0000000000136640 t luaB_corunning
0000000000136670 t luaB_cocreate
00000000001366c0 t luaB_cowrap
0000000000136700 t luaB_auxwrap
0000000000136790 t getco
00000000001367e0 t luaB_costatus
00000000001368b0 t luaB_coresume
0000000000136940 T luaopen_coroutine
0000000000136990 t db_getregistry
00000000001369b0 t auxupvalue
0000000000136a40 t db_setupvalue
0000000000136a70 t db_getupvalue
0000000000136a90 t checkupval
0000000000136b10 t db_setmetatable
0000000000136b70 t treatstackoption
0000000000136bc0 t db_setuservalue
0000000000136c20 t db_upvalueid
0000000000136c70 t db_upvaluejoin
0000000000136d20 t db_getmetatable
0000000000136d60 t db_getuservalue
0000000000136dc0 t db_debug
0000000000136f00 t getthread
0000000000136f60 t db_traceback
0000000000137000 t checkstack.part.1
0000000000137050 t db_setlocal
0000000000137180 t db_sethook
0000000000137370 t db_getlocal
00000000001374e0 t db_getinfo
0000000000137850 t db_gethook
00000000001379a0 t hookf
0000000000137a30 T luaopen_debug
0000000000137a80 t getiofile
0000000000137b00 t g_write
0000000000137c30 t io_write
0000000000137c70 t io_type
0000000000137d00 t tofile
0000000000137d50 t aux_close
0000000000137d90 t io_close
0000000000137de0 t f_gc
0000000000137e20 t io_noclose
0000000000137e70 t io_fclose
0000000000137eb0 t newprefile
0000000000137ef0 t read_chars
0000000000137f70 t read_all
0000000000137fe0 t nextc
0000000000138050 t readdigits
00000000001380b0 t read_line
0000000000138240 t g_read
0000000000138770 t io_read
00000000001387b0 t f_read
00000000001387e0 t io_flush
0000000000138820 t f_flush
0000000000138860 t io_popen
0000000000138900 t io_pclose
0000000000138940 t f_write
0000000000138980 t createstdfile
00000000001389f0 t io_open
0000000000138af0 t aux_lines
0000000000138b70 t f_lines
0000000000138ba0 t io_readline
0000000000138ce0 t f_tostring
0000000000138d50 t f_setvbuf
0000000000138dd0 t io_tmpfile
0000000000138e20 t opencheck
0000000000138ea0 t g_iofile
0000000000138f40 t io_output
0000000000138f60 t io_input
0000000000138f80 t io_lines
0000000000139060 t f_seek
0000000000139100 T luaopen_io
00000000001391e0 t pushnumint
0000000000139220 t math_rad
0000000000139260 t math_deg
00000000001392a0 t math_log10
00000000001392e0 t math_ldexp
0000000000139330 t math_frexp
0000000000139380 t math_pow
00000000001393e0 t math_tanh
0000000000139420 t math_sinh
0000000000139460 t math_cosh
00000000001394a0 t math_tan
00000000001394e0 t math_sqrt
0000000000139540 t math_sin
0000000000139580 t math_randomseed
00000000001395b0 t math_random
0000000000139730 t math_min
00000000001397d0 t math_max
0000000000139870 t math_log
0000000000139940 t math_ult
0000000000139990 t math_exp
00000000001399d0 t math_cos
0000000000139a10 t math_atan
0000000000139a70 t math_asin
0000000000139ab0 t math_acos
0000000000139af0 t math_type
0000000000139b80 t math_ceil
0000000000139c40 t math_modf
0000000000139d90 t math_floor
0000000000139e60 t math_toint
0000000000139ed0 t math_abs
0000000000139f60 t math_fmod
000000000013a050 T luaopen_math
000000000013a130 t os_setlocale
000000000013a190 t os_rename
000000000013a1e0 t os_remove
000000000013a220 t os_getenv
000000000013a260 t os_exit
000000000013a2f0 t os_execute
000000000013a340 t os_difftime
000000000013a390 t os_clock
000000000013a3d0 t os_tmpname
000000000013a440 t getfield
000000000013a540 t setallfields
000000000013a6a0 t os_time
000000000013a810 t os_date
000000000013aaa0 T luaopen_os
000000000013aaf0 t str_len
000000000013ab30 t unpackint
000000000013ac80 t packint
000000000013ad50 t writer
000000000013ad70 t str_upper
000000000013ae10 t str_reverse
000000000013aea0 t str_rep
000000000013b010 t str_lower
000000000013b0b0 t match_class
000000000013b270 t matchbracketclass
000000000013b330 t gmatch
000000000013b3e0 t str_char
000000000013b4b0 t addlenmod
000000000013b540 t str_format
000000000013bde0 t getnum.part.2
000000000013be30 t copywithendian
000000000013bea0 t getnumlimit.isra.4
000000000013bf00 t getoption
000000000013c100 t getdetails
000000000013c200 t str_packsize
000000000013c320 t str_unpack
000000000013c670 t str_pack
000000000013cbc0 t classend.isra.5
000000000013cca0 t push_onecapture
000000000013cd80 t push_captures
000000000013ce20 t singlematch.isra.7.part.8
000000000013ce80 t str_dump
000000000013cf30 t str_sub
000000000013d030 t str_byte
000000000013d180 t match
000000000013d740 t str_find_aux
000000000013dac0 t str_match
000000000013dae0 t str_find
000000000013db00 t str_gsub
000000000013e0a0 t gmatch_aux
000000000013e130 T luaopen_string
000000000013e1f0 t unpack
000000000013e2f0 t pack
000000000013e3a0 t addfield
000000000013e420 t checktab
000000000013e550 t tmove
000000000013e740 t tremove
000000000013e850 t tinsert
000000000013e960 t tconcat
000000000013ea70 t sort_comp
000000000013eb30 t auxsort
000000000013ef10 t sort
000000000013efc0 T luaopen_table
000000000013f010 t utf8_decode
000000000013f0c0 t iter_codes
000000000013f110 t iter_aux
000000000013f200 t pushutfchar
000000000013f260 t utfchar
000000000013f300 t byteoffset
000000000013f520 t utflen
000000000013f700 t codepoint
000000000013f8c0 T luaopen_utf8
000000000013f940 t findloader
000000000013fa70 t ll_require
000000000013fbb0 t searcher_preload
000000000013fc10 t searchpath
000000000013fdb0 t lookforfunc
000000000013ff30 t ll_loadlib
000000000013ffe0 t loadfunc
0000000000140090 t gctm
0000000000140110 t setpath
0000000000140220 t checkload.part.0
0000000000140280 t ll_searchpath
0000000000140340 t findfile.constprop.2
00000000001403c0 t searcher_Lua
0000000000140440 t searcher_C
00000000001404e0 t searcher_Croot
00000000001405e0 T luaopen_package
0000000000140800 T _ZN10l2r_lr_fun15get_nr_variableEv
0000000000140820 T _ZN14l2r_l2_svc_fun15get_nr_variableEv
0000000000140840 T _Z14compare_doublePKvS0_
0000000000140870 T _ZN10l2r_lr_funD2Ev
00000000001408d0 T _ZN10l2r_lr_funD0Ev
0000000000140900 T _ZN14l2r_l2_svc_funD2Ev
0000000000140970 T _ZN14l2r_l2_svc_funD0Ev
00000000001409a0 t _ZL19print_string_stdoutPKc
00000000001409d0 t _ZL4infoPKcz
0000000000140ab0 t _ZL18solve_l2r_l1l2_svcPK7problemPddddi
0000000000141230 t _ZL9transposePK7problemPP12feature_nodePS_.constprop.2
0000000000141500 T _ZN10l2r_lr_funC1EPK7problemdd
00000000001415c0 T _ZN10l2r_lr_fun2XvEPdS0_
0000000000141630 T _ZN10l2r_lr_fun3funEPd
00000000001417b0 T _ZN10l2r_lr_fun3XTvEPdS0_
0000000000141870 T _ZN10l2r_lr_fun4gradEPdS0_
00000000001419d0 T _ZN10l2r_lr_fun2HvEPdS0_
0000000000141af0 T _ZN14l2r_l2_svc_funC2EPK7problemdd
0000000000141c00 T _ZN14l2r_l2_svc_fun2XvEPdS0_
0000000000141c70 T _ZN14l2r_l2_svc_fun3funEPd
0000000000141d80 T _ZN14l2r_l2_svc_fun5subXvEPdS0_
0000000000141e00 T _ZN14l2r_l2_svc_fun6subXTvEPdS0_
0000000000141ec0 T _ZN14l2r_l2_svc_fun4gradEPdS0_
0000000000141fe0 T _ZN14l2r_l2_svc_fun2HvEPdS0_
00000000001420f0 T _ZN15Solver_MCSVM_CSC2EPK7problemiPddi
0000000000142190 T _ZN15Solver_MCSVM_CSD1Ev
00000000001421d0 T _ZN15Solver_MCSVM_CS17solve_sub_problemEdidiPd
0000000000142390 T _ZN15Solver_MCSVM_CS9be_shrunkEiiidd
00000000001423f0 T _ZN15Solver_MCSVM_CS5SolveEPd
0000000000142fa0 T _Z17solve_l2r_lr_dualPK7problemPdddd
00000000001438b0 t _ZL9train_onePK7problemPK9parameterPddd.isra.1
0000000000145920 T train
0000000000146410 T predict_values
0000000000146540 T predict
0000000000146590 T predict_probability
00000000001466c0 T save_model
00000000001468e0 T load_model
0000000000146cd0 T get_nr_feature
0000000000146ce0 T get_nr_class
0000000000146cf0 T get_labels
0000000000146d30 T free_model_content
0000000000146d70 T free_and_destroy_model
0000000000146db0 T cross_validation
00000000001470f0 T destroy_param
0000000000147130 T check_parameter
0000000000147180 T check_probability_model
00000000001471a0 T set_print_string_function
00000000001471c0 t _ZL13default_printPKc
00000000001471f0 T _ZN4TRON4infoEPKcz
00000000001472e0 T _ZN4TRONC1EPK8functiondi
0000000000147300 T _ZN4TROND2Ev
0000000000147310 T _ZN4TRON4trcgEdPdS0_S0_
0000000000147730 T _ZN4TRON4tronEPd
0000000000147d20 T _ZN4TRON8norm_infEiPd
0000000000147d80 T _ZN4TRON16set_print_stringEPFvPKcE
0000000000147d90 T daxpy_
0000000000147f10 T ddot_
0000000000148050 T dnrm2_
0000000000148160 T dscal_
0000000000148250 T __libc_csu_init
00000000001482c0 T __libc_csu_fini
00000000001482d0 t atexit
00000000001482f9 t __sym_end
